ARM GAS  C:\Users\abhim\AppData\Local\Temp\ccGDlNrk.s 			page 1


   1              		.syntax unified
   2              		.cpu cortex-m3
   3              		.fpu softvfp
   4              		.eabi_attribute 20, 1
   5              		.eabi_attribute 21, 1
   6              		.eabi_attribute 23, 3
   7              		.eabi_attribute 24, 1
   8              		.eabi_attribute 25, 1
   9              		.eabi_attribute 26, 1
  10              		.eabi_attribute 30, 1
  11              		.eabi_attribute 34, 1
  12              		.eabi_attribute 18, 4
  13              		.thumb
  14              		.syntax unified
  15              		.file	"drawer.c"
  16              		.text
  17              	.Ltext0:
  18              		.cfi_sections	.debug_frame
  19              		.section	.text.initDrawer,"ax",%progbits
  20              		.align	2
  21              		.global	initDrawer
  22              		.thumb
  23              		.thumb_func
  24              		.type	initDrawer, %function
  25              	initDrawer:
  26              	.LFB110:
  27              		.file 1 "source\\bsw\\drawer.c"
   1:source\bsw/drawer.c **** /**
   2:source\bsw/drawer.c **** * \file <filename>
   3:source\bsw/drawer.c **** * \author <author-name>
   4:source\bsw/drawer.c **** * \date <date>
   5:source\bsw/drawer.c **** *
   6:source\bsw/drawer.c **** * \brief <Symbolic File name>
   7:source\bsw/drawer.c **** *
   8:source\bsw/drawer.c **** * \copyright Copyright ©2016
   9:source\bsw/drawer.c **** * Department of electrical engineering and information technology, Hochschule Darmstadt - Universit
  10:source\bsw/drawer.c **** * Permission to use, copy, modify, and distribute this software and its documentation for education
  11:source\bsw/drawer.c **** * (unless permitted by h_da) and official h_da projects, is hereby granted for enrolled students of
  12:source\bsw/drawer.c **** * this paragraph and the following paragraph appear in all copies, modifications, and distributions
  13:source\bsw/drawer.c **** * Contact Prof.Dr.-Ing. Peter Fromm, peter.fromm@h-da.de, Birkenweg 8 64295 Darmstadt - GERMANY for
  14:source\bsw/drawer.c **** *
  15:source\bsw/drawer.c **** * \warning This software is a PROTOTYPE version and is not designed or intended for use in producti
  16:source\bsw/drawer.c **** * The user represents and warrants that it will NOT use or redistribute the Software for such purpo
  17:source\bsw/drawer.c **** * This prototype is for research purposes only. This software is provided "AS IS," without a warran
  18:source\bsw/drawer.c **** */
  19:source\bsw/drawer.c **** 
  20:source\bsw/drawer.c **** /*****************************************************************************/
  21:source\bsw/drawer.c **** /* Include files                                                             */
  22:source\bsw/drawer.c **** /*****************************************************************************/
  23:source\bsw/drawer.c **** 
  24:source\bsw/drawer.c **** #include "drawer.h"
  25:source\bsw/drawer.c **** 
  26:source\bsw/drawer.c **** /*****************************************************************************/
  27:source\bsw/drawer.c **** /* Local pre-processor symbols/macros ('#define')                            */
  28:source\bsw/drawer.c **** /*****************************************************************************/
  29:source\bsw/drawer.c **** 
  30:source\bsw/drawer.c **** /*****************************************************************************/
ARM GAS  C:\Users\abhim\AppData\Local\Temp\ccGDlNrk.s 			page 2


  31:source\bsw/drawer.c **** /* Global variable definitions (declared in header file with 'extern')       */
  32:source\bsw/drawer.c **** /*****************************************************************************/
  33:source\bsw/drawer.c **** 
  34:source\bsw/drawer.c **** /*****************************************************************************/
  35:source\bsw/drawer.c **** /* Local type definitions ('typedef')                                        */
  36:source\bsw/drawer.c **** /*****************************************************************************/
  37:source\bsw/drawer.c **** 
  38:source\bsw/drawer.c **** /*****************************************************************************/
  39:source\bsw/drawer.c **** /* Local variable definitions ('static')                                     */
  40:source\bsw/drawer.c **** /*****************************************************************************/
  41:source\bsw/drawer.c **** 
  42:source\bsw/drawer.c **** 
  43:source\bsw/drawer.c **** 
  44:source\bsw/drawer.c **** /*****************************************************************************/
  45:source\bsw/drawer.c **** /* Local function prototypes ('static')                                      */
  46:source\bsw/drawer.c **** /*****************************************************************************/
  47:source\bsw/drawer.c **** 
  48:source\bsw/drawer.c **** 
  49:source\bsw/drawer.c **** /*****************************************************************************/
  50:source\bsw/drawer.c **** /* Function implementation - global ('extern') and local ('static')          */
  51:source\bsw/drawer.c **** /*****************************************************************************/
  52:source\bsw/drawer.c **** 
  53:source\bsw/drawer.c **** /**
  54:source\bsw/drawer.c ****  * <Description>
  55:source\bsw/drawer.c ****  * \param <first para>
  56:source\bsw/drawer.c ****  * \return <return value>
  57:source\bsw/drawer.c ****  */
  58:source\bsw/drawer.c **** 
  59:source\bsw/drawer.c **** RC_t initDrawer(drawer_t *drawer) {
  28              		.loc 1 59 0
  29              		.cfi_startproc
  30              		@ args = 0, pretend = 0, frame = 0
  31              		@ frame_needed = 0, uses_anonymous_args = 0
  32              	.LVL0:
  33 0000 10B5     		push	{r4, lr}
  34              		.cfi_def_cfa_offset 8
  35              		.cfi_offset 4, -8
  36              		.cfi_offset 14, -4
  60:source\bsw/drawer.c ****     if (drawer == NULL) {
  37              		.loc 1 60 0
  38 0002 28B9     		cbnz	r0, .L2
  61:source\bsw/drawer.c ****         UART_LOG_PutString("Error: Null pointer passed to initDrawer\r\n");
  39              		.loc 1 61 0
  40 0004 0748     		ldr	r0, .L5
  41              	.LVL1:
  42 0006 FFF7FEFF 		bl	UART_LOG_PutString
  43              	.LVL2:
  62:source\bsw/drawer.c ****         return RC_ERROR;
  44              		.loc 1 62 0
  45 000a 4FF0FF30 		mov	r0, #-1
  46 000e 10BD     		pop	{r4, pc}
  47              	.LVL3:
  48              	.L2:
  63:source\bsw/drawer.c ****     }
  64:source\bsw/drawer.c ****     drawer->command = DRAWER_CMD_DRAW;  
  49              		.loc 1 64 0
  50 0010 0122     		movs	r2, #1
ARM GAS  C:\Users\abhim\AppData\Local\Temp\ccGDlNrk.s 			page 3


  51 0012 0270     		strb	r2, [r0]
  65:source\bsw/drawer.c ****     drawer->data.color = NULL; // Default: no color assigned
  52              		.loc 1 65 0
  53 0014 0024     		movs	r4, #0
  54 0016 4460     		str	r4, [r0, #4]
  66:source\bsw/drawer.c ****     UART_LOG_PutString("initDrawer: Drawer initialized successfully\r\n");
  55              		.loc 1 66 0
  56 0018 0348     		ldr	r0, .L5+4
  57              	.LVL4:
  58 001a FFF7FEFF 		bl	UART_LOG_PutString
  59              	.LVL5:
  67:source\bsw/drawer.c ****     return RC_SUCCESS;
  60              		.loc 1 67 0
  61 001e 2046     		mov	r0, r4
  68:source\bsw/drawer.c **** }
  62              		.loc 1 68 0
  63 0020 10BD     		pop	{r4, pc}
  64              	.L6:
  65 0022 00BF     		.align	2
  66              	.L5:
  67 0024 00000000 		.word	.LC0
  68 0028 2C000000 		.word	.LC1
  69              		.cfi_endproc
  70              	.LFE110:
  71              		.size	initDrawer, .-initDrawer
  72              		.section	.text.freeDrawer,"ax",%progbits
  73              		.align	2
  74              		.global	freeDrawer
  75              		.thumb
  76              		.thumb_func
  77              		.type	freeDrawer, %function
  78              	freeDrawer:
  79              	.LFB111:
  69:source\bsw/drawer.c **** 
  70:source\bsw/drawer.c **** 
  71:source\bsw/drawer.c **** RC_t freeDrawer(drawer_t* drawer) {
  80              		.loc 1 71 0
  81              		.cfi_startproc
  82              		@ args = 0, pretend = 0, frame = 0
  83              		@ frame_needed = 0, uses_anonymous_args = 0
  84              	.LVL6:
  72:source\bsw/drawer.c ****     if (drawer != NULL) {
  85              		.loc 1 72 0
  86 0000 50B1     		cbz	r0, .L11
  71:source\bsw/drawer.c ****     if (drawer != NULL) {
  87              		.loc 1 71 0
  88 0002 10B5     		push	{r4, lr}
  89              		.cfi_def_cfa_offset 8
  90              		.cfi_offset 4, -8
  91              		.cfi_offset 14, -4
  92 0004 0446     		mov	r4, r0
  73:source\bsw/drawer.c ****       if(drawer->data.color != NULL){
  93              		.loc 1 73 0
  94 0006 4068     		ldr	r0, [r0, #4]
  95              	.LVL7:
  96 0008 08B1     		cbz	r0, .L9
  74:source\bsw/drawer.c ****         free(drawer->data.color);
ARM GAS  C:\Users\abhim\AppData\Local\Temp\ccGDlNrk.s 			page 4


  97              		.loc 1 74 0
  98 000a FFF7FEFF 		bl	free
  99              	.LVL8:
 100              	.L9:
  75:source\bsw/drawer.c ****       }
  76:source\bsw/drawer.c ****       else{
  77:source\bsw/drawer.c ****         //nothing
  78:source\bsw/drawer.c ****       }
  79:source\bsw/drawer.c ****       free(drawer);
 101              		.loc 1 79 0
 102 000e 2046     		mov	r0, r4
 103 0010 FFF7FEFF 		bl	free
 104              	.LVL9:
  80:source\bsw/drawer.c ****     }
  81:source\bsw/drawer.c ****     return RC_SUCCESS;  // Ensure return statement is valid
  82:source\bsw/drawer.c **** }  
 105              		.loc 1 82 0
 106 0014 0020     		movs	r0, #0
 107 0016 10BD     		pop	{r4, pc}
 108              	.LVL10:
 109              	.L11:
 110              		.cfi_def_cfa_offset 0
 111              		.cfi_restore 4
 112              		.cfi_restore 14
 113 0018 0020     		movs	r0, #0
 114              	.LVL11:
 115 001a 7047     		bx	lr
 116              		.cfi_endproc
 117              	.LFE111:
 118              		.size	freeDrawer, .-freeDrawer
 119              		.section	.rodata.str1.4,"aMS",%progbits,1
 120              		.align	2
 121              	.LC0:
 122 0000 4572726F 		.ascii	"Error: Null pointer passed to initDrawer\015\012\000"
 122      723A204E 
 122      756C6C20 
 122      706F696E 
 122      74657220 
 123 002b 00       		.space	1
 124              	.LC1:
 125 002c 696E6974 		.ascii	"initDrawer: Drawer initialized successfully\015\012"
 125      44726177 
 125      65723A20 
 125      44726177 
 125      65722069 
 126 0059 00       		.ascii	"\000"
 127              		.text
 128              	.Letext0:
 129              		.file 2 "c:\\program files (x86)\\cypress\\psoc creator\\4.4\\psoc creator\\import\\gnu\\arm\\5.4.
 130              		.file 3 "c:\\program files (x86)\\cypress\\psoc creator\\4.4\\psoc creator\\import\\gnu\\arm\\5.4.
 131              		.file 4 "Generated_Source\\PSoC5/ErikaOS_common_ee_types.inc"
 132              		.file 5 "Generated_Source\\PSoC5/ErikaOS_cortex_mx_ee_cpu.inc"
 133              		.file 6 "source\\bsw\\global.h"
 134              		.file 7 "source\\bsw\\drawer.h"
 135              		.file 8 "Generated_Source\\PSoC5/ErikaOS_ee_oo_intfunc.inc"
 136              		.file 9 "Generated_Source\\PSoC5/ErikaOS_cortex_mx_ee_context.inc"
 137              		.file 10 "Generated_Source\\PSoC5/ErikaOS_common_ee_primitives.inc"
ARM GAS  C:\Users\abhim\AppData\Local\Temp\ccGDlNrk.s 			page 5


 138              		.file 11 "Generated_Source\\PSoC5/core_cm3.h"
 139              		.file 12 "Generated_Source\\PSoC5/UART_LOG.h"
 140              		.file 13 "c:\\program files (x86)\\cypress\\psoc creator\\4.4\\psoc creator\\import\\gnu\\arm\\5.4