ARM GAS  C:\Users\abhim\AppData\Local\Temp\cc9o2dYU.s 			page 1


   1              		.syntax unified
   2              		.cpu cortex-m3
   3              		.fpu softvfp
   4              		.eabi_attribute 20, 1
   5              		.eabi_attribute 21, 1
   6              		.eabi_attribute 23, 3
   7              		.eabi_attribute 24, 1
   8              		.eabi_attribute 25, 1
   9              		.eabi_attribute 26, 1
  10              		.eabi_attribute 30, 1
  11              		.eabi_attribute 34, 1
  12              		.eabi_attribute 18, 4
  13              		.thumb
  14              		.syntax unified
  15              		.file	"main.c"
  16              		.text
  17              	.Ltext0:
  18              		.cfi_sections	.debug_frame
  19              		.section	.text.isr_uartRx,"ax",%progbits
  20              		.align	2
  21              		.global	isr_uartRx
  22              		.thumb
  23              		.thumb_func
  24              		.type	isr_uartRx, %function
  25              	isr_uartRx:
  26              	.LFB118:
  27              		.file 1 "source\\asw\\main.c"
   1:source\asw/main.c **** /* ========================================
   2:source\asw/main.c ****  *
   3:source\asw/main.c ****  * Copyright YOUR COMPANY, THE YEAR
   4:source\asw/main.c ****  * All Rights Reserved
   5:source\asw/main.c ****  * UNPUBLISHED, LICENSED SOFTWARE.
   6:source\asw/main.c ****  *
   7:source\asw/main.c ****  * CONFIDENTIAL AND PROPRIETARY INFORMATION
   8:source\asw/main.c ****  * WHICH IS THE PROPERTY OF your company.
   9:source\asw/main.c ****  *
  10:source\asw/main.c ****  * ========================================
  11:source\asw/main.c **** */
  12:source\asw/main.c **** #include <stdio.h>
  13:source\asw/main.c **** #include "global.h"
  14:source\asw/main.c **** #include "parserNew.h"
  15:source\asw/main.c **** #include "CRingBuffer.h"
  16:source\asw/main.c **** #include "drawer.h"
  17:source\asw/main.c **** #include "messageBox.h"
  18:source\asw/main.c **** #include "tft/tft.h"
  19:source\asw/main.c **** 
  20:source\asw/main.c **** CRingBuffer ringBuffer;
  21:source\asw/main.c **** Parser_t jsonParser;
  22:source\asw/main.c **** MSG_messagebox_t messageBox;
  23:source\asw/main.c **** 
  24:source\asw/main.c **** CY_ISR_PROTO(isr_uartRx);
  25:source\asw/main.c **** void systick_handler(void) {
  26:source\asw/main.c ****     CounterTick(cnt_systick);
  27:source\asw/main.c **** }
  28:source\asw/main.c **** int main(void)
  29:source\asw/main.c **** {
  30:source\asw/main.c ****     CyGlobalIntEnable; /* Enable global interrupts. */
ARM GAS  C:\Users\abhim\AppData\Local\Temp\cc9o2dYU.s 			page 2


  31:source\asw/main.c ****     isr_uart_StartEx(isr_uartRx);
  32:source\asw/main.c ****     UART_LOG_Start();
  33:source\asw/main.c ****     TFT_init();
  34:source\asw/main.c ****     TFT_setBacklight(100);
  35:source\asw/main.c ****     TFT_print("Hello world\n");
  36:source\asw/main.c ****     ringBufferCreate(&ringBuffer);
  37:source\asw/main.c ****     PARSER_init(&jsonParser); 
  38:source\asw/main.c ****     MSG_init(&messageBox,100,ev_sendMsg,tsk_hmi);
  39:source\asw/main.c ****     /* Place your initialization/startup code here (e.g. MyInst_Start()) */
  40:source\asw/main.c ****     
  41:source\asw/main.c ****     EE_systick_set_period(MILLISECONDS_TO_TICKS(1, BCLK__BUS_CLK__HZ));
  42:source\asw/main.c ****     EE_systick_enable_int();
  43:source\asw/main.c ****     
  44:source\asw/main.c ****     for(;;)
  45:source\asw/main.c ****     {
  46:source\asw/main.c ****          StartOS(OSDEFAULTAPPMODE);
  47:source\asw/main.c ****         /* Place your application code here. */
  48:source\asw/main.c ****     }
  49:source\asw/main.c **** }
  50:source\asw/main.c **** TASK(tsk_init){
  51:source\asw/main.c ****     EE_system_init();
  52:source\asw/main.c ****     EE_systick_start();
  53:source\asw/main.c ****     ActivateTask(tsk_json);
  54:source\asw/main.c ****     ActivateTask(tsk_hmi);
  55:source\asw/main.c ****     TerminateTask();
  56:source\asw/main.c **** }
  57:source\asw/main.c **** 
  58:source\asw/main.c **** TASK(tsk_background){
  59:source\asw/main.c ****     while(1)
  60:source\asw/main.c ****     {
  61:source\asw/main.c ****         //do something with low prioroty
  62:source\asw/main.c ****         __asm("nop");
  63:source\asw/main.c ****     }
  64:source\asw/main.c ****     TerminateTask();
  65:source\asw/main.c **** }
  66:source\asw/main.c **** 
  67:source\asw/main.c **** TASK(tsk_hmi){
  68:source\asw/main.c ****     EventMaskType activeEvents;
  69:source\asw/main.c ****     while(1){
  70:source\asw/main.c ****         WaitEvent(ev_sendMsg);
  71:source\asw/main.c ****         GetEvent(tsk_hmi,&activeEvents);
  72:source\asw/main.c ****         if(activeEvents & ev_sendMsg){
  73:source\asw/main.c ****             char buffer[128]={0};
  74:source\asw/main.c ****             uint16_t sizeMsg;           
  75:source\asw/main.c ****             if (MSG_getSizeOfNextMessage(&messageBox, &sizeMsg) == RC_SUCCESS) {
  76:source\asw/main.c ****                 sprintf(buffer, "Size of the msg from task hmi : %d\r\n", sizeMsg);
  77:source\asw/main.c ****                 UART_LOG_PutString(buffer);
  78:source\asw/main.c ****                 message_t *rcvMsg = (message_t *)malloc(sizeof(message_t));
  79:source\asw/main.c ****                 MSG_receiveMessage(&messageBox, rcvMsg, sizeMsg);
  80:source\asw/main.c ****                 UART_LOG_PutString("Received Message:\r\n");
  81:source\asw/main.c ****                     sprintf(buffer, "Size: %d\r\n", rcvMsg->size);
  82:source\asw/main.c ****                     UART_LOG_PutString(buffer);
  83:source\asw/main.c ****                     if (rcvMsg->drawer != NULL) {
  84:source\asw/main.c ****                         sprintf(buffer, "Drawer Coordinates from HMI TASK: %d, %d, %d, %d\r\n",
  85:source\asw/main.c ****                                 rcvMsg->drawer->data.coordinate[0],
  86:source\asw/main.c ****                                 rcvMsg->drawer->data.coordinate[1],
  87:source\asw/main.c ****                                 rcvMsg->drawer->data.coordinate[2],
ARM GAS  C:\Users\abhim\AppData\Local\Temp\cc9o2dYU.s 			page 3


  88:source\asw/main.c ****                                 rcvMsg->drawer->data.coordinate[3]);
  89:source\asw/main.c ****                         UART_LOG_PutString(buffer);
  90:source\asw/main.c ****                         TFT_writeLine(rcvMsg->drawer->data.coordinate[0], rcvMsg->drawer->data.coor
  91:source\asw/main.c ****                         freeMessage(rcvMsg);
  92:source\asw/main.c ****                     }
  93:source\asw/main.c ****             }
  94:source\asw/main.c ****         }
  95:source\asw/main.c ****        ClearEvent(activeEvents); 
  96:source\asw/main.c ****     }
  97:source\asw/main.c ****     TerminateTask();
  98:source\asw/main.c **** }
  99:source\asw/main.c **** 
 100:source\asw/main.c **** TASK(tsk_json) {
 101:source\asw/main.c ****     EventMaskType ev = 0;
 102:source\asw/main.c ****     EventMaskType activeEvents;
 103:source\asw/main.c ****     while(1) {
 104:source\asw/main.c ****         WaitEvent(ev_eos);
 105:source\asw/main.c ****         GetEvent(tsk_json, &activeEvents); 
 106:source\asw/main.c ****         if(activeEvents & ev_eos) {
 107:source\asw/main.c ****             PARSER_clear(&jsonParser);
 108:source\asw/main.c ****             uint8_t ringBData;
 109:source\asw/main.c ****             unsigned short fillLevel = ringBuffer.m_fillLevel;
 110:source\asw/main.c ****             char debug[32];
 111:source\asw/main.c ****             for(unsigned short count = 0; count < fillLevel; count++) {
 112:source\asw/main.c ****                 ringBufferRead(&ringBuffer, &ringBData); //Reading from ringbuffer
 113:source\asw/main.c ****                 PARSER_addChar(&jsonParser, (char)ringBData); //Writing characters to the jsonparse
 114:source\asw/main.c ****             }
 115:source\asw/main.c ****             UART_LOG_PutString("Received JSON: ");
 116:source\asw/main.c ****             UART_LOG_PutString(jsonParser.content);
 117:source\asw/main.c ****             UART_LOG_PutString("\r\n");
 118:source\asw/main.c ****             int parseResult = jsmn_parse(&jsonParser.parser, 
 119:source\asw/main.c ****                                 jsonParser.content, 
 120:source\asw/main.c ****                                 strlen(jsonParser.content), 
 121:source\asw/main.c ****                                 jsonParser.token, 
 122:source\asw/main.c ****                                 PARSERMAXTOKEN);       
 123:source\asw/main.c ****             jsmntok_t token;
 124:source\asw/main.c ****             PARSER_resetNextToken(&jsonParser); //Reset next token to 0
 125:source\asw/main.c ****             RC_t tokenResult = PARSER_getNextToken(&jsonParser, &token);
 126:source\asw/main.c ****             UART_LOG_PutString("Starting to process tokens\r\n");
 127:source\asw/main.c ****             while(PARSER_getNextToken(&jsonParser, &token) == RC_SUCCESS) {
 128:source\asw/main.c ****                 if(token.type == JSMN_STRING) {
 129:source\asw/main.c ****                         char key[10];
 130:source\asw/main.c ****                         int keyLen = token.end - token.start;
 131:source\asw/main.c ****                         strncpy(key, &jsonParser.content[token.start], keyLen);
 132:source\asw/main.c ****                         key[keyLen] = '\0';
 133:source\asw/main.c ****                         sprintf(debug, "Found key: %s\r\n", key);
 134:source\asw/main.c ****                         UART_LOG_PutString(debug);
 135:source\asw/main.c ****                         jsmntok_t valueToken;
 136:source\asw/main.c ****                         RC_t valueResult = PARSER_getNextToken(&jsonParser, &valueToken);          
 137:source\asw/main.c ****                         if(valueResult != RC_SUCCESS) {
 138:source\asw/main.c ****                             UART_LOG_PutString("Failed to get value token\r\n");
 139:source\asw/main.c ****                             continue;
 140:source\asw/main.c ****                         }                       
 141:source\asw/main.c ****                         if(strcmp(key, "c") == 0) {
 142:source\asw/main.c ****                             if(valueToken.type == JSMN_STRING) {
 143:source\asw/main.c ****                                 char colorValue[20];
 144:source\asw/main.c ****                                 drawer_t *drawer = malloc(sizeof(drawer_t)); //dynamically creating
ARM GAS  C:\Users\abhim\AppData\Local\Temp\cc9o2dYU.s 			page 4


 145:source\asw/main.c ****                                 if (drawer != NULL) {
 146:source\asw/main.c ****                                     memset(drawer, 0, sizeof(drawer_t));
 147:source\asw/main.c ****                                 }
 148:source\asw/main.c ****                                 message_t *message = malloc(sizeof(message_t)); //dynamically creat
 149:source\asw/main.c ****                                 if (message != NULL) {
 150:source\asw/main.c ****                                     memset(drawer, 0, sizeof(message_t));
 151:source\asw/main.c ****                                 }
 152:source\asw/main.c ****                                 initMessage(message);
 153:source\asw/main.c ****                                 int valueLen = valueToken.end - valueToken.start;
 154:source\asw/main.c ****                                 drawer->data.color = malloc(valueLen + 1);
 155:source\asw/main.c ****                                 if (drawer->data.color == NULL) {
 156:source\asw/main.c ****                                         freeDrawer(drawer); 
 157:source\asw/main.c ****                                         UART_LOG_PutString("Memory allocation for color failed!\r\n
 158:source\asw/main.c ****                                         continue;
 159:source\asw/main.c ****                                 }
 160:source\asw/main.c ****                                 strncpy(drawer->data.color, &jsonParser.content[valueToken.start], 
 161:source\asw/main.c ****                                 drawer->data.color[valueLen] = '\0';
 162:source\asw/main.c ****                                
 163:source\asw/main.c ****                                 drawer->command = DRAWER_CMD_COLOR;                    
 164:source\asw/main.c ****                                 createMessage(message,sizeof(message_t),drawer);
 165:source\asw/main.c ****                                 MSG_sendMessage(&messageBox,message,sizeof(message_t));
 166:source\asw/main.c ****                                 sprintf(debug, "Color value: %s\r\n", drawer->data.color);
 167:source\asw/main.c ****                                 UART_LOG_PutString(debug);
 168:source\asw/main.c ****                             }
 169:source\asw/main.c ****                         }
 170:source\asw/main.c ****                         else if(strcmp(key, "d") == 0) {
 171:source\asw/main.c ****                             if(valueToken.type == JSMN_ARRAY) {
 172:source\asw/main.c ****                                 drawer_t *drawer = malloc(sizeof(drawer_t));
 173:source\asw/main.c ****                                 message_t *message = malloc(sizeof(message_t));
 174:source\asw/main.c ****                                 initMessage(message);
 175:source\asw/main.c ****                                 sprintf(debug, "Found array with size: %d\r\n", valueToken.size);
 176:source\asw/main.c ****                                 UART_LOG_PutString(debug);
 177:source\asw/main.c ****                                     
 178:source\asw/main.c ****                                 for(int i = 0; i < valueToken.size; i++) {
 179:source\asw/main.c ****                                     jsmntok_t arrayToken;
 180:source\asw/main.c ****                                     PARSER_getNextToken(&jsonParser, &arrayToken);
 181:source\asw/main.c ****                                     
 182:source\asw/main.c ****                                     char numStr[10];
 183:source\asw/main.c ****                                     int numLen = arrayToken.end - arrayToken.start;
 184:source\asw/main.c ****                                     strncpy(numStr, &jsonParser.content[arrayToken.start], numLen);
 185:source\asw/main.c ****                                     numStr[numLen] = '\0'; //Added for atoi
 186:source\asw/main.c ****                                    
 187:source\asw/main.c ****                                     int number = atoi(numStr);//string to integer
 188:source\asw/main.c ****                                     drawer->data.coordinate[i]= number;
 189:source\asw/main.c ****                                     createMessage(message,sizeof(drawer),drawer);
 190:source\asw/main.c ****                                     MSG_sendMessage(&messageBox,message,sizeof(message_t));
 191:source\asw/main.c ****                                     sprintf(debug, "Array value[%d]: %d\r\n", i, number);
 192:source\asw/main.c ****                                     UART_LOG_PutString(debug);
 193:source\asw/main.c ****                                 }
 194:source\asw/main.c ****                             }
 195:source\asw/main.c ****                         }
 196:source\asw/main.c ****                     }
 197:source\asw/main.c ****                 }         
 198:source\asw/main.c ****         }
 199:source\asw/main.c ****         ClearEvent(activeEvents);
 200:source\asw/main.c ****     }
 201:source\asw/main.c ****     TerminateTask();
ARM GAS  C:\Users\abhim\AppData\Local\Temp\cc9o2dYU.s 			page 5


 202:source\asw/main.c **** }
 203:source\asw/main.c **** 
 204:source\asw/main.c **** void unhandledException()
 205:source\asw/main.c **** {
 206:source\asw/main.c ****     //Ooops, something terrible happened....check the call stack to see how we got here...
 207:source\asw/main.c ****     __asm("bkpt");
 208:source\asw/main.c **** }
 209:source\asw/main.c **** 
 210:source\asw/main.c **** // If a READ opern. is done through UART and a ClearRxBuffer() is called over the same UART by anot
 211:source\asw/main.c **** // it might lead to data corruption.
 212:source\asw/main.c **** CY_ISR(isr_uartRx){
  28              		.loc 1 212 0
  29              		.cfi_startproc
  30              		@ args = 0, pretend = 0, frame = 0
  31              		@ frame_needed = 0, uses_anonymous_args = 0
  32 0000 08B5     		push	{r3, lr}
  33              		.cfi_def_cfa_offset 8
  34              		.cfi_offset 3, -8
  35              		.cfi_offset 14, -4
 213:source\asw/main.c ****     isr_uart_ClearPending();
  36              		.loc 1 213 0
  37 0002 FFF7FEFF 		bl	isr_uart_ClearPending
  38              	.LVL0:
 214:source\asw/main.c ****     static int count = 0;
 215:source\asw/main.c ****     uint8_t rxData;
 216:source\asw/main.c ****     rxData = UART_LOG_ReadRxData();
  39              		.loc 1 216 0
  40 0006 FFF7FEFF 		bl	UART_LOG_ReadRxData
  41              	.LVL1:
 217:source\asw/main.c ****     if(rxData !='\0'){
  42              		.loc 1 217 0
  43 000a 20B1     		cbz	r0, .L2
  44 000c 0146     		mov	r1, r0
 218:source\asw/main.c ****         ringBufferWrite(&ringBuffer,rxData);    
  45              		.loc 1 218 0
  46 000e 0448     		ldr	r0, .L5
  47              	.LVL2:
  48 0010 FFF7FEFF 		bl	ringBufferWrite
  49              	.LVL3:
  50 0014 08BD     		pop	{r3, pc}
  51              	.LVL4:
  52              	.L2:
 219:source\asw/main.c ****     } else{
 220:source\asw/main.c ****        SetEvent(tsk_json,ev_eos);
  53              		.loc 1 220 0
  54 0016 0121     		movs	r1, #1
  55 0018 0220     		movs	r0, #2
  56              	.LVL5:
  57 001a FFF7FEFF 		bl	EE_oo_SetEvent
  58              	.LVL6:
  59 001e 08BD     		pop	{r3, pc}
  60              	.L6:
  61              		.align	2
  62              	.L5:
  63 0020 00000000 		.word	ringBuffer
  64              		.cfi_endproc
  65              	.LFE118:
ARM GAS  C:\Users\abhim\AppData\Local\Temp\cc9o2dYU.s 			page 6


  66              		.size	isr_uartRx, .-isr_uartRx
  67              		.section	.text.systick_handler,"ax",%progbits
  68              		.align	2
  69              		.global	systick_handler
  70              		.thumb
  71              		.thumb_func
  72              		.type	systick_handler, %function
  73              	systick_handler:
  74              	.LFB111:
  25:source\asw/main.c ****     CounterTick(cnt_systick);
  75              		.loc 1 25 0
  76              		.cfi_startproc
  77              		@ args = 0, pretend = 0, frame = 0
  78              		@ frame_needed = 0, uses_anonymous_args = 0
  79 0000 08B5     		push	{r3, lr}
  80              		.cfi_def_cfa_offset 8
  81              		.cfi_offset 3, -8
  82              		.cfi_offset 14, -4
  26:source\asw/main.c **** }
  83              		.loc 1 26 0
  84 0002 0020     		movs	r0, #0
  85 0004 FFF7FEFF 		bl	EE_oo_IncrementCounter
  86              	.LVL7:
  87 0008 08BD     		pop	{r3, pc}
  88              		.cfi_endproc
  89              	.LFE111:
  90              		.size	systick_handler, .-systick_handler
  91 000a 00BF     		.section	.text.main,"ax",%progbits
  92              		.align	2
  93              		.global	main
  94              		.thumb
  95              		.thumb_func
  96              		.type	main, %function
  97              	main:
  98              	.LFB112:
  29:source\asw/main.c ****     CyGlobalIntEnable; /* Enable global interrupts. */
  99              		.loc 1 29 0
 100              		.cfi_startproc
 101              		@ Volatile: function does not return.
 102              		@ args = 0, pretend = 0, frame = 0
 103              		@ frame_needed = 0, uses_anonymous_args = 0
 104 0000 08B5     		push	{r3, lr}
 105              		.cfi_def_cfa_offset 8
 106              		.cfi_offset 3, -8
 107              		.cfi_offset 14, -4
  30:source\asw/main.c ****     isr_uart_StartEx(isr_uartRx);
 108              		.loc 1 30 0
 109              		.syntax unified
 110              	@ 30 "source\asw\main.c" 1
 111 0002 62B6     		CPSIE   i
 112              	@ 0 "" 2
  31:source\asw/main.c ****     UART_LOG_Start();
 113              		.loc 1 31 0
 114              		.thumb
 115              		.syntax unified
 116 0004 1248     		ldr	r0, .L12
 117 0006 FFF7FEFF 		bl	isr_uart_StartEx
ARM GAS  C:\Users\abhim\AppData\Local\Temp\cc9o2dYU.s 			page 7


 118              	.LVL8:
  32:source\asw/main.c ****     TFT_init();
 119              		.loc 1 32 0
 120 000a FFF7FEFF 		bl	UART_LOG_Start
 121              	.LVL9:
  33:source\asw/main.c ****     TFT_setBacklight(100);
 122              		.loc 1 33 0
 123 000e FFF7FEFF 		bl	TFT_init
 124              	.LVL10:
  34:source\asw/main.c ****     TFT_print("Hello world\n");
 125              		.loc 1 34 0
 126 0012 6420     		movs	r0, #100
 127 0014 FFF7FEFF 		bl	TFT_setBacklight
 128              	.LVL11:
  35:source\asw/main.c ****     ringBufferCreate(&ringBuffer);
 129              		.loc 1 35 0
 130 0018 0E48     		ldr	r0, .L12+4
 131 001a FFF7FEFF 		bl	TFT_print
 132              	.LVL12:
  36:source\asw/main.c ****     PARSER_init(&jsonParser); 
 133              		.loc 1 36 0
 134 001e 0E48     		ldr	r0, .L12+8
 135 0020 FFF7FEFF 		bl	ringBufferCreate
 136              	.LVL13:
  37:source\asw/main.c ****     MSG_init(&messageBox,100,ev_sendMsg,tsk_hmi);
 137              		.loc 1 37 0
 138 0024 0D48     		ldr	r0, .L12+12
 139 0026 FFF7FEFF 		bl	PARSER_init
 140              	.LVL14:
  38:source\asw/main.c ****     /* Place your initialization/startup code here (e.g. MyInst_Start()) */
 141              		.loc 1 38 0
 142 002a 0323     		movs	r3, #3
 143 002c 0222     		movs	r2, #2
 144 002e 6421     		movs	r1, #100
 145 0030 0B48     		ldr	r0, .L12+16
 146 0032 FFF7FEFF 		bl	MSG_init
 147              	.LVL15:
 148              	.LBB8:
 149              	.LBB9:
 150              		.file 2 "Generated_Source\\PSoC5/ErikaOS_cortex_mx_ee_systick.inc"
   1:Generated_Source\PSoC5/ErikaOS_cortex_mx_ee_systick.inc **** /* ###*B*###
   2:Generated_Source\PSoC5/ErikaOS_cortex_mx_ee_systick.inc ****  * ERIKA Enterprise - a tiny RTOS for small microcontrollers
   3:Generated_Source\PSoC5/ErikaOS_cortex_mx_ee_systick.inc ****  *
   4:Generated_Source\PSoC5/ErikaOS_cortex_mx_ee_systick.inc ****  * Copyright (C) 2002-2012  Evidence Srl
   5:Generated_Source\PSoC5/ErikaOS_cortex_mx_ee_systick.inc ****  *
   6:Generated_Source\PSoC5/ErikaOS_cortex_mx_ee_systick.inc ****  * This file is part of ERIKA Enterprise.
   7:Generated_Source\PSoC5/ErikaOS_cortex_mx_ee_systick.inc ****  *
   8:Generated_Source\PSoC5/ErikaOS_cortex_mx_ee_systick.inc ****  * ERIKA Enterprise is free software; you can redistribute it
   9:Generated_Source\PSoC5/ErikaOS_cortex_mx_ee_systick.inc ****  * and/or modify it under the terms of the GNU General Public License
  10:Generated_Source\PSoC5/ErikaOS_cortex_mx_ee_systick.inc ****  * version 2 as published by the Free Software Foundation,
  11:Generated_Source\PSoC5/ErikaOS_cortex_mx_ee_systick.inc ****  * (with a special exception described below).
  12:Generated_Source\PSoC5/ErikaOS_cortex_mx_ee_systick.inc ****  *
  13:Generated_Source\PSoC5/ErikaOS_cortex_mx_ee_systick.inc ****  * Linking this code statically or dynamically with other modules is
  14:Generated_Source\PSoC5/ErikaOS_cortex_mx_ee_systick.inc ****  * making a combined work based on this code.  Thus, the terms and
  15:Generated_Source\PSoC5/ErikaOS_cortex_mx_ee_systick.inc ****  * conditions of the GNU General Public License cover the whole
  16:Generated_Source\PSoC5/ErikaOS_cortex_mx_ee_systick.inc ****  * combination.
  17:Generated_Source\PSoC5/ErikaOS_cortex_mx_ee_systick.inc ****  *
ARM GAS  C:\Users\abhim\AppData\Local\Temp\cc9o2dYU.s 			page 8


  18:Generated_Source\PSoC5/ErikaOS_cortex_mx_ee_systick.inc ****  * As a special exception, the copyright holders of this library give you
  19:Generated_Source\PSoC5/ErikaOS_cortex_mx_ee_systick.inc ****  * permission to link this code with independent modules to produce an
  20:Generated_Source\PSoC5/ErikaOS_cortex_mx_ee_systick.inc ****  * executable, regardless of the license terms of these independent
  21:Generated_Source\PSoC5/ErikaOS_cortex_mx_ee_systick.inc ****  * modules, and to copy and distribute the resulting executable under
  22:Generated_Source\PSoC5/ErikaOS_cortex_mx_ee_systick.inc ****  * terms of your choice, provided that you also meet, for each linked
  23:Generated_Source\PSoC5/ErikaOS_cortex_mx_ee_systick.inc ****  * independent module, the terms and conditions of the license of that
  24:Generated_Source\PSoC5/ErikaOS_cortex_mx_ee_systick.inc ****  * module.  An independent module is a module which is not derived from
  25:Generated_Source\PSoC5/ErikaOS_cortex_mx_ee_systick.inc ****  * or based on this library.  If you modify this code, you may extend
  26:Generated_Source\PSoC5/ErikaOS_cortex_mx_ee_systick.inc ****  * this exception to your version of the code, but you are not
  27:Generated_Source\PSoC5/ErikaOS_cortex_mx_ee_systick.inc ****  * obligated to do so.  If you do not wish to do so, delete this
  28:Generated_Source\PSoC5/ErikaOS_cortex_mx_ee_systick.inc ****  * exception statement from your version.
  29:Generated_Source\PSoC5/ErikaOS_cortex_mx_ee_systick.inc ****  *
  30:Generated_Source\PSoC5/ErikaOS_cortex_mx_ee_systick.inc ****  * ERIKA Enterprise is distributed in the hope that it will be
  31:Generated_Source\PSoC5/ErikaOS_cortex_mx_ee_systick.inc ****  * useful, but WITHOUT ANY WARRANTY; without even the implied warranty
  32:Generated_Source\PSoC5/ErikaOS_cortex_mx_ee_systick.inc ****  * of MERCHANTABILITY or FITNESS FOR A PARTICULAR PURPOSE.  See the
  33:Generated_Source\PSoC5/ErikaOS_cortex_mx_ee_systick.inc ****  * GNU General Public License version 2 for more details.
  34:Generated_Source\PSoC5/ErikaOS_cortex_mx_ee_systick.inc ****  *
  35:Generated_Source\PSoC5/ErikaOS_cortex_mx_ee_systick.inc ****  * You should have received a copy of the GNU General Public License
  36:Generated_Source\PSoC5/ErikaOS_cortex_mx_ee_systick.inc ****  * version 2 along with ERIKA Enterprise; if not, write to the
  37:Generated_Source\PSoC5/ErikaOS_cortex_mx_ee_systick.inc ****  * Free Software Foundation, Inc., 51 Franklin Street, Fifth Floor,
  38:Generated_Source\PSoC5/ErikaOS_cortex_mx_ee_systick.inc ****  * Boston, MA 02110-1301 USA.
  39:Generated_Source\PSoC5/ErikaOS_cortex_mx_ee_systick.inc ****  * ###*E*### */
  40:Generated_Source\PSoC5/ErikaOS_cortex_mx_ee_systick.inc **** 
  41:Generated_Source\PSoC5/ErikaOS_cortex_mx_ee_systick.inc **** /**
  42:Generated_Source\PSoC5/ErikaOS_cortex_mx_ee_systick.inc ****     @file	ee_systick.h
  43:Generated_Source\PSoC5/ErikaOS_cortex_mx_ee_systick.inc ****     @brief	SysTick system timer driver header file.
  44:Generated_Source\PSoC5/ErikaOS_cortex_mx_ee_systick.inc ****     @author	Giuseppe Serano
  45:Generated_Source\PSoC5/ErikaOS_cortex_mx_ee_systick.inc ****     @date	2012
  46:Generated_Source\PSoC5/ErikaOS_cortex_mx_ee_systick.inc **** 
  47:Generated_Source\PSoC5/ErikaOS_cortex_mx_ee_systick.inc **** **/
  48:Generated_Source\PSoC5/ErikaOS_cortex_mx_ee_systick.inc **** 
  49:Generated_Source\PSoC5/ErikaOS_cortex_mx_ee_systick.inc **** /*
  50:Generated_Source\PSoC5/ErikaOS_cortex_mx_ee_systick.inc ****  * PSoC Port and API Generation
  51:Generated_Source\PSoC5/ErikaOS_cortex_mx_ee_systick.inc ****  * Carlos Fernando Meier Martinez
  52:Generated_Source\PSoC5/ErikaOS_cortex_mx_ee_systick.inc ****  * Hochschule Darmstadt, Germany. 2017.
  53:Generated_Source\PSoC5/ErikaOS_cortex_mx_ee_systick.inc ****  */
  54:Generated_Source\PSoC5/ErikaOS_cortex_mx_ee_systick.inc **** 
  55:Generated_Source\PSoC5/ErikaOS_cortex_mx_ee_systick.inc **** #ifndef	__INCLUDE_CORTEX_MX_SYSTICK_H__
  56:Generated_Source\PSoC5/ErikaOS_cortex_mx_ee_systick.inc **** #define	__INCLUDE_CORTEX_MX_SYSTICK_H__
  57:Generated_Source\PSoC5/ErikaOS_cortex_mx_ee_systick.inc **** 
  58:Generated_Source\PSoC5/ErikaOS_cortex_mx_ee_systick.inc **** #ifdef	__USE_SYSTICK__
  59:Generated_Source\PSoC5/ErikaOS_cortex_mx_ee_systick.inc **** 
  60:Generated_Source\PSoC5/ErikaOS_cortex_mx_ee_systick.inc **** /** error value. No errors happened **/
  61:Generated_Source\PSoC5/ErikaOS_cortex_mx_ee_systick.inc **** #define	EE_SYSTICK_NO_ERRORS	0
  62:Generated_Source\PSoC5/ErikaOS_cortex_mx_ee_systick.inc **** /** error value. Wrong funtion arguments values **/
  63:Generated_Source\PSoC5/ErikaOS_cortex_mx_ee_systick.inc **** #define	EE_SYSTICK_ERR_BAD_ARGS	1
  64:Generated_Source\PSoC5/ErikaOS_cortex_mx_ee_systick.inc **** 
  65:Generated_Source\PSoC5/ErikaOS_cortex_mx_ee_systick.inc **** /**
  66:Generated_Source\PSoC5/ErikaOS_cortex_mx_ee_systick.inc ****     @brief Start SysTick.
  67:Generated_Source\PSoC5/ErikaOS_cortex_mx_ee_systick.inc **** 
  68:Generated_Source\PSoC5/ErikaOS_cortex_mx_ee_systick.inc ****     This will start the SysTick counter.  If an ISR has been defined, it is
  69:Generated_Source\PSoC5/ErikaOS_cortex_mx_ee_systick.inc ****     called when the SysTick counter rolls over.
  70:Generated_Source\PSoC5/ErikaOS_cortex_mx_ee_systick.inc **** 
  71:Generated_Source\PSoC5/ErikaOS_cortex_mx_ee_systick.inc ****     @note Calling this function will cause the SysTick counter to (re)commence
  72:Generated_Source\PSoC5/ErikaOS_cortex_mx_ee_systick.inc ****     counting from its current value.  The counter is not automatically reloaded
  73:Generated_Source\PSoC5/ErikaOS_cortex_mx_ee_systick.inc ****     with the period as specified in a previous call to EE_systick_set_period().
  74:Generated_Source\PSoC5/ErikaOS_cortex_mx_ee_systick.inc ****     If an immediate reload is required, the \b NVIC_ST_CURRENT register must be
ARM GAS  C:\Users\abhim\AppData\Local\Temp\cc9o2dYU.s 			page 9


  75:Generated_Source\PSoC5/ErikaOS_cortex_mx_ee_systick.inc ****     written to force this.  Any write to this register clears the SysTick
  76:Generated_Source\PSoC5/ErikaOS_cortex_mx_ee_systick.inc ****     counter to 0 and will cause a reload with the supplied period on the next
  77:Generated_Source\PSoC5/ErikaOS_cortex_mx_ee_systick.inc ****     clock.
  78:Generated_Source\PSoC5/ErikaOS_cortex_mx_ee_systick.inc ****  */
  79:Generated_Source\PSoC5/ErikaOS_cortex_mx_ee_systick.inc **** __INLINE__ void  EE_systick_start(void)
  80:Generated_Source\PSoC5/ErikaOS_cortex_mx_ee_systick.inc **** {
  81:Generated_Source\PSoC5/ErikaOS_cortex_mx_ee_systick.inc ****   NVIC_ST_CTRL_R |= NVIC_ST_CTRL_CLK_SRC | NVIC_ST_CTRL_ENABLE;
  82:Generated_Source\PSoC5/ErikaOS_cortex_mx_ee_systick.inc **** }
  83:Generated_Source\PSoC5/ErikaOS_cortex_mx_ee_systick.inc **** 
  84:Generated_Source\PSoC5/ErikaOS_cortex_mx_ee_systick.inc **** /**
  85:Generated_Source\PSoC5/ErikaOS_cortex_mx_ee_systick.inc ****     @brief Stop SysTick.
  86:Generated_Source\PSoC5/ErikaOS_cortex_mx_ee_systick.inc **** 
  87:Generated_Source\PSoC5/ErikaOS_cortex_mx_ee_systick.inc ****     This will stop the SysTick counter.  If an ISR has been defined, it will
  88:Generated_Source\PSoC5/ErikaOS_cortex_mx_ee_systick.inc ****     no longer be called until SysTick is restarted.
  89:Generated_Source\PSoC5/ErikaOS_cortex_mx_ee_systick.inc **** */
  90:Generated_Source\PSoC5/ErikaOS_cortex_mx_ee_systick.inc **** __INLINE__ void  EE_systick_stop(void)
  91:Generated_Source\PSoC5/ErikaOS_cortex_mx_ee_systick.inc **** {
  92:Generated_Source\PSoC5/ErikaOS_cortex_mx_ee_systick.inc ****   NVIC_ST_CTRL_R &= ~(NVIC_ST_CTRL_ENABLE);
  93:Generated_Source\PSoC5/ErikaOS_cortex_mx_ee_systick.inc **** }
  94:Generated_Source\PSoC5/ErikaOS_cortex_mx_ee_systick.inc **** 
  95:Generated_Source\PSoC5/ErikaOS_cortex_mx_ee_systick.inc **** /**
  96:Generated_Source\PSoC5/ErikaOS_cortex_mx_ee_systick.inc ****     @brief Enables the SysTick interrupt.
  97:Generated_Source\PSoC5/ErikaOS_cortex_mx_ee_systick.inc **** 
  98:Generated_Source\PSoC5/ErikaOS_cortex_mx_ee_systick.inc ****     This function will enable the SysTick interrupt, allowing it to be
  99:Generated_Source\PSoC5/ErikaOS_cortex_mx_ee_systick.inc ****     reflected to the processor.
 100:Generated_Source\PSoC5/ErikaOS_cortex_mx_ee_systick.inc **** 
 101:Generated_Source\PSoC5/ErikaOS_cortex_mx_ee_systick.inc ****     @note The SysTick ISR does not need to clear the SysTick interrupt source as
 102:Generated_Source\PSoC5/ErikaOS_cortex_mx_ee_systick.inc ****     this is done automatically by NVIC when the interrupt ISR is called.
 103:Generated_Source\PSoC5/ErikaOS_cortex_mx_ee_systick.inc ****  */
 104:Generated_Source\PSoC5/ErikaOS_cortex_mx_ee_systick.inc **** __INLINE__ void  EE_systick_enable_int()
 105:Generated_Source\PSoC5/ErikaOS_cortex_mx_ee_systick.inc **** {
 106:Generated_Source\PSoC5/ErikaOS_cortex_mx_ee_systick.inc ****   NVIC_ST_CTRL_R |= NVIC_ST_CTRL_INTEN;
 107:Generated_Source\PSoC5/ErikaOS_cortex_mx_ee_systick.inc **** }
 108:Generated_Source\PSoC5/ErikaOS_cortex_mx_ee_systick.inc **** 
 109:Generated_Source\PSoC5/ErikaOS_cortex_mx_ee_systick.inc **** /**
 110:Generated_Source\PSoC5/ErikaOS_cortex_mx_ee_systick.inc ****     @brief Disables the SysTick interrupt.
 111:Generated_Source\PSoC5/ErikaOS_cortex_mx_ee_systick.inc **** 
 112:Generated_Source\PSoC5/ErikaOS_cortex_mx_ee_systick.inc ****     This function will disable the SysTick interrupt, preventing it from being
 113:Generated_Source\PSoC5/ErikaOS_cortex_mx_ee_systick.inc ****     reflected to the processor.
 114:Generated_Source\PSoC5/ErikaOS_cortex_mx_ee_systick.inc ****  */
 115:Generated_Source\PSoC5/ErikaOS_cortex_mx_ee_systick.inc **** __INLINE__ void  EE_systick_disable_int()
 116:Generated_Source\PSoC5/ErikaOS_cortex_mx_ee_systick.inc **** {
 117:Generated_Source\PSoC5/ErikaOS_cortex_mx_ee_systick.inc ****   NVIC_ST_CTRL_R &= ~(NVIC_ST_CTRL_INTEN);
 118:Generated_Source\PSoC5/ErikaOS_cortex_mx_ee_systick.inc **** }
 119:Generated_Source\PSoC5/ErikaOS_cortex_mx_ee_systick.inc **** 
 120:Generated_Source\PSoC5/ErikaOS_cortex_mx_ee_systick.inc **** /**
 121:Generated_Source\PSoC5/ErikaOS_cortex_mx_ee_systick.inc ****     @brief Sets the period of the SysTick counter.
 122:Generated_Source\PSoC5/ErikaOS_cortex_mx_ee_systick.inc **** 
 123:Generated_Source\PSoC5/ErikaOS_cortex_mx_ee_systick.inc ****     @param period is the number of clock ticks in each period of the SysTick
 124:Generated_Source\PSoC5/ErikaOS_cortex_mx_ee_systick.inc ****     counter; must be between 1 and 16,777,216, inclusive. If the \e period is
 125:Generated_Source\PSoC5/ErikaOS_cortex_mx_ee_systick.inc ****     out of range the function returns \b EE_SYSTICK_ERR_BAD_ARGS, else it will
 126:Generated_Source\PSoC5/ErikaOS_cortex_mx_ee_systick.inc ****     returns \b EE_SYSTICK_NO_ERRORS.
 127:Generated_Source\PSoC5/ErikaOS_cortex_mx_ee_systick.inc **** 
 128:Generated_Source\PSoC5/ErikaOS_cortex_mx_ee_systick.inc ****     This function sets the rate at which the SysTick counter wraps; this
 129:Generated_Source\PSoC5/ErikaOS_cortex_mx_ee_systick.inc ****     equates to the number of processor clocks between interrupts.
 130:Generated_Source\PSoC5/ErikaOS_cortex_mx_ee_systick.inc **** 
 131:Generated_Source\PSoC5/ErikaOS_cortex_mx_ee_systick.inc ****     @note Calling this function does not cause the SysTick counter to reload
ARM GAS  C:\Users\abhim\AppData\Local\Temp\cc9o2dYU.s 			page 10


 132:Generated_Source\PSoC5/ErikaOS_cortex_mx_ee_systick.inc ****     immediately.  If an immediate reload is required, the \b NVIC_ST_CURRENT
 133:Generated_Source\PSoC5/ErikaOS_cortex_mx_ee_systick.inc ****     register must be written.  Any write to this register clears the SysTick
 134:Generated_Source\PSoC5/ErikaOS_cortex_mx_ee_systick.inc ****     counter to 0 and will cause a reload with the \e period supplied here on
 135:Generated_Source\PSoC5/ErikaOS_cortex_mx_ee_systick.inc ****     the next clock after the SysTick is enabled.
 136:Generated_Source\PSoC5/ErikaOS_cortex_mx_ee_systick.inc ****  */
 137:Generated_Source\PSoC5/ErikaOS_cortex_mx_ee_systick.inc **** __INLINE__ EE_UREG  EE_systick_set_period(EE_UREG period)
 138:Generated_Source\PSoC5/ErikaOS_cortex_mx_ee_systick.inc **** {
 139:Generated_Source\PSoC5/ErikaOS_cortex_mx_ee_systick.inc ****   if ((period == NVIC_ST_RELOAD_S) || (period > NVIC_ST_RELOAD_M))
 140:Generated_Source\PSoC5/ErikaOS_cortex_mx_ee_systick.inc ****     return EE_SYSTICK_ERR_BAD_ARGS;
 141:Generated_Source\PSoC5/ErikaOS_cortex_mx_ee_systick.inc **** 
 142:Generated_Source\PSoC5/ErikaOS_cortex_mx_ee_systick.inc ****   NVIC_ST_RELOAD_R = period - 1;
 151              		.loc 2 142 0
 152 0036 45F6BF52 		movw	r2, #23999
 153 003a 0A4B     		ldr	r3, .L12+20
 154 003c 1A60     		str	r2, [r3]
 155              	.LVL16:
 156              	.LBE9:
 157              	.LBE8:
 158              	.LBB10:
 159              	.LBB11:
 106:Generated_Source\PSoC5/ErikaOS_cortex_mx_ee_systick.inc **** }
 160              		.loc 2 106 0
 161 003e 0A4A     		ldr	r2, .L12+24
 162 0040 1368     		ldr	r3, [r2]
 163 0042 43F00203 		orr	r3, r3, #2
 164 0046 1360     		str	r3, [r2]
 165              	.L10:
 166              	.LBE11:
 167              	.LBE10:
  46:source\asw/main.c ****         /* Place your application code here. */
 168              		.loc 1 46 0 discriminator 1
 169 0048 0020     		movs	r0, #0
 170 004a FFF7FEFF 		bl	EE_oo_StartOS
 171              	.LVL17:
 172 004e FBE7     		b	.L10
 173              	.L13:
 174              		.align	2
 175              	.L12:
 176 0050 00000000 		.word	isr_uartRx
 177 0054 00000000 		.word	.LC0
 178 0058 00000000 		.word	ringBuffer
 179 005c 00000000 		.word	jsonParser
 180 0060 00000000 		.word	messageBox
 181 0064 14E000E0 		.word	-536813548
 182 0068 10E000E0 		.word	-536813552
 183              		.cfi_endproc
 184              	.LFE112:
 185              		.size	main, .-main
 186              		.section	.text.Functsk_init,"ax",%progbits
 187              		.align	2
 188              		.global	Functsk_init
 189              		.thumb
 190              		.thumb_func
 191              		.type	Functsk_init, %function
 192              	Functsk_init:
 193              	.LFB113:
  50:source\asw/main.c ****     EE_system_init();
ARM GAS  C:\Users\abhim\AppData\Local\Temp\cc9o2dYU.s 			page 11


 194              		.loc 1 50 0
 195              		.cfi_startproc
 196              		@ args = 0, pretend = 0, frame = 0
 197              		@ frame_needed = 0, uses_anonymous_args = 0
 198 0000 08B5     		push	{r3, lr}
 199              		.cfi_def_cfa_offset 8
 200              		.cfi_offset 3, -8
 201              		.cfi_offset 14, -4
  51:source\asw/main.c ****     EE_systick_start();
 202              		.loc 1 51 0
 203 0002 FFF7FEFF 		bl	EE_system_init
 204              	.LVL18:
 205              	.LBB12:
 206              	.LBB13:
  81:Generated_Source\PSoC5/ErikaOS_cortex_mx_ee_systick.inc **** }
 207              		.loc 2 81 0
 208 0006 074A     		ldr	r2, .L16
 209 0008 1368     		ldr	r3, [r2]
 210 000a 43F00503 		orr	r3, r3, #5
 211 000e 1360     		str	r3, [r2]
 212              	.LBE13:
 213              	.LBE12:
  53:source\asw/main.c ****     ActivateTask(tsk_hmi);
 214              		.loc 1 53 0
 215 0010 0220     		movs	r0, #2
 216 0012 FFF7FEFF 		bl	EE_oo_ActivateTask
 217              	.LVL19:
  54:source\asw/main.c ****     TerminateTask();
 218              		.loc 1 54 0
 219 0016 0320     		movs	r0, #3
 220 0018 FFF7FEFF 		bl	EE_oo_ActivateTask
 221              	.LVL20:
  55:source\asw/main.c **** }
 222              		.loc 1 55 0
 223 001c FFF7FEFF 		bl	EE_oo_TerminateTask
 224              	.LVL21:
 225 0020 08BD     		pop	{r3, pc}
 226              	.L17:
 227 0022 00BF     		.align	2
 228              	.L16:
 229 0024 10E000E0 		.word	-536813552
 230              		.cfi_endproc
 231              	.LFE113:
 232              		.size	Functsk_init, .-Functsk_init
 233              		.section	.text.Functsk_background,"ax",%progbits
 234              		.align	2
 235              		.global	Functsk_background
 236              		.thumb
 237              		.thumb_func
 238              		.type	Functsk_background, %function
 239              	Functsk_background:
 240              	.LFB114:
  58:source\asw/main.c ****     while(1)
 241              		.loc 1 58 0
 242              		.cfi_startproc
 243              		@ Volatile: function does not return.
 244              		@ args = 0, pretend = 0, frame = 0
ARM GAS  C:\Users\abhim\AppData\Local\Temp\cc9o2dYU.s 			page 12


 245              		@ frame_needed = 0, uses_anonymous_args = 0
 246              		@ link register save eliminated.
 247              	.L19:
  62:source\asw/main.c ****     }
 248              		.loc 1 62 0 discriminator 1
 249              		.syntax unified
 250              	@ 62 "source\asw\main.c" 1
 251 0000 00BF     		nop
 252              	@ 0 "" 2
 253              		.thumb
 254              		.syntax unified
 255 0002 FDE7     		b	.L19
 256              		.cfi_endproc
 257              	.LFE114:
 258              		.size	Functsk_background, .-Functsk_background
 259              		.section	.text.Functsk_hmi,"ax",%progbits
 260              		.align	2
 261              		.global	Functsk_hmi
 262              		.thumb
 263              		.thumb_func
 264              		.type	Functsk_hmi, %function
 265              	Functsk_hmi:
 266              	.LFB115:
  67:source\asw/main.c ****     EventMaskType activeEvents;
 267              		.loc 1 67 0
 268              		.cfi_startproc
 269              		@ args = 0, pretend = 0, frame = 136
 270              		@ frame_needed = 0, uses_anonymous_args = 0
 271 0000 30B5     		push	{r4, r5, lr}
 272              		.cfi_def_cfa_offset 12
 273              		.cfi_offset 4, -12
 274              		.cfi_offset 5, -8
 275              		.cfi_offset 14, -4
 276 0002 A5B0     		sub	sp, sp, #148
 277              		.cfi_def_cfa_offset 160
 278              	.L23:
  70:source\asw/main.c ****         GetEvent(tsk_hmi,&activeEvents);
 279              		.loc 1 70 0
 280 0004 0220     		movs	r0, #2
 281 0006 FFF7FEFF 		bl	EE_oo_WaitEvent
 282              	.LVL22:
  71:source\asw/main.c ****         if(activeEvents & ev_sendMsg){
 283              		.loc 1 71 0
 284 000a 23A9     		add	r1, sp, #140
 285 000c 0320     		movs	r0, #3
 286 000e FFF7FEFF 		bl	EE_oo_GetEvent
 287              	.LVL23:
  72:source\asw/main.c ****             char buffer[128]={0};
 288              		.loc 1 72 0
 289 0012 239B     		ldr	r3, [sp, #140]
 290 0014 13F0020F 		tst	r3, #2
 291 0018 44D0     		beq	.L21
 292              	.LBB14:
  73:source\asw/main.c ****             uint16_t sizeMsg;           
 293              		.loc 1 73 0
 294 001a 8022     		movs	r2, #128
 295 001c 0021     		movs	r1, #0
ARM GAS  C:\Users\abhim\AppData\Local\Temp\cc9o2dYU.s 			page 13


 296 001e 03A8     		add	r0, sp, #12
 297 0020 FFF7FEFF 		bl	memset
 298              	.LVL24:
  75:source\asw/main.c ****                 sprintf(buffer, "Size of the msg from task hmi : %d\r\n", sizeMsg);
 299              		.loc 1 75 0
 300 0024 0DF10A01 		add	r1, sp, #10
 301 0028 2048     		ldr	r0, .L25
 302 002a FFF7FEFF 		bl	MSG_getSizeOfNextMessage
 303              	.LVL25:
 304 002e 0028     		cmp	r0, #0
 305 0030 38D1     		bne	.L21
 306              	.LBB15:
  76:source\asw/main.c ****                 UART_LOG_PutString(buffer);
 307              		.loc 1 76 0
 308 0032 BDF80A20 		ldrh	r2, [sp, #10]
 309 0036 1E49     		ldr	r1, .L25+4
 310 0038 03A8     		add	r0, sp, #12
 311 003a FFF7FEFF 		bl	sprintf
 312              	.LVL26:
  77:source\asw/main.c ****                 message_t *rcvMsg = (message_t *)malloc(sizeof(message_t));
 313              		.loc 1 77 0
 314 003e 03A8     		add	r0, sp, #12
 315 0040 FFF7FEFF 		bl	UART_LOG_PutString
 316              	.LVL27:
  78:source\asw/main.c ****                 MSG_receiveMessage(&messageBox, rcvMsg, sizeMsg);
 317              		.loc 1 78 0
 318 0044 0820     		movs	r0, #8
 319 0046 FFF7FEFF 		bl	malloc
 320              	.LVL28:
 321 004a 0446     		mov	r4, r0
 322              	.LVL29:
  79:source\asw/main.c ****                 UART_LOG_PutString("Received Message:\r\n");
 323              		.loc 1 79 0
 324 004c BDF80A20 		ldrh	r2, [sp, #10]
 325 0050 0146     		mov	r1, r0
 326 0052 1648     		ldr	r0, .L25
 327              	.LVL30:
 328 0054 FFF7FEFF 		bl	MSG_receiveMessage
 329              	.LVL31:
  80:source\asw/main.c ****                     sprintf(buffer, "Size: %d\r\n", rcvMsg->size);
 330              		.loc 1 80 0
 331 0058 1648     		ldr	r0, .L25+8
 332 005a FFF7FEFF 		bl	UART_LOG_PutString
 333              	.LVL32:
  81:source\asw/main.c ****                     UART_LOG_PutString(buffer);
 334              		.loc 1 81 0
 335 005e A288     		ldrh	r2, [r4, #4]
 336 0060 1549     		ldr	r1, .L25+12
 337 0062 03A8     		add	r0, sp, #12
 338 0064 FFF7FEFF 		bl	sprintf
 339              	.LVL33:
  82:source\asw/main.c ****                     if (rcvMsg->drawer != NULL) {
 340              		.loc 1 82 0
 341 0068 03A8     		add	r0, sp, #12
 342 006a FFF7FEFF 		bl	UART_LOG_PutString
 343              	.LVL34:
  83:source\asw/main.c ****                         sprintf(buffer, "Drawer Coordinates from HMI TASK: %d, %d, %d, %d\r\n",
ARM GAS  C:\Users\abhim\AppData\Local\Temp\cc9o2dYU.s 			page 14


 344              		.loc 1 83 0
 345 006e 2168     		ldr	r1, [r4]
 346 0070 C1B1     		cbz	r1, .L21
  85:source\asw/main.c ****                                 rcvMsg->drawer->data.coordinate[1],
 347              		.loc 1 85 0
 348 0072 0A79     		ldrb	r2, [r1, #4]	@ zero_extendqisi2
  86:source\asw/main.c ****                                 rcvMsg->drawer->data.coordinate[2],
 349              		.loc 1 86 0
 350 0074 4B79     		ldrb	r3, [r1, #5]	@ zero_extendqisi2
  87:source\asw/main.c ****                                 rcvMsg->drawer->data.coordinate[3]);
 351              		.loc 1 87 0
 352 0076 8879     		ldrb	r0, [r1, #6]	@ zero_extendqisi2
  88:source\asw/main.c ****                         UART_LOG_PutString(buffer);
 353              		.loc 1 88 0
 354 0078 C979     		ldrb	r1, [r1, #7]	@ zero_extendqisi2
  84:source\asw/main.c ****                                 rcvMsg->drawer->data.coordinate[0],
 355              		.loc 1 84 0
 356 007a 0191     		str	r1, [sp, #4]
 357 007c 0090     		str	r0, [sp]
 358 007e 0F49     		ldr	r1, .L25+16
 359 0080 03A8     		add	r0, sp, #12
 360 0082 FFF7FEFF 		bl	sprintf
 361              	.LVL35:
  89:source\asw/main.c ****                         TFT_writeLine(rcvMsg->drawer->data.coordinate[0], rcvMsg->drawer->data.coor
 362              		.loc 1 89 0
 363 0086 03A8     		add	r0, sp, #12
 364 0088 FFF7FEFF 		bl	UART_LOG_PutString
 365              	.LVL36:
  90:source\asw/main.c ****                         freeMessage(rcvMsg);
 366              		.loc 1 90 0
 367 008c 2068     		ldr	r0, [r4]
 368 008e C379     		ldrb	r3, [r0, #7]	@ zero_extendqisi2
 369 0090 8279     		ldrb	r2, [r0, #6]	@ zero_extendqisi2
 370 0092 4179     		ldrb	r1, [r0, #5]	@ zero_extendqisi2
 371 0094 0079     		ldrb	r0, [r0, #4]	@ zero_extendqisi2
 372 0096 1F25     		movs	r5, #31
 373 0098 0095     		str	r5, [sp]
 374 009a FFF7FEFF 		bl	TFT_writeLine
 375              	.LVL37:
  91:source\asw/main.c ****                     }
 376              		.loc 1 91 0
 377 009e 2046     		mov	r0, r4
 378 00a0 FFF7FEFF 		bl	freeMessage
 379              	.LVL38:
 380              	.L21:
 381              	.LBE15:
 382              	.LBE14:
  95:source\asw/main.c ****     }
 383              		.loc 1 95 0
 384 00a4 2398     		ldr	r0, [sp, #140]
 385 00a6 FFF7FEFF 		bl	EE_oo_ClearEvent
 386              	.LVL39:
  96:source\asw/main.c ****     TerminateTask();
 387              		.loc 1 96 0
 388 00aa ABE7     		b	.L23
 389              	.L26:
 390              		.align	2
ARM GAS  C:\Users\abhim\AppData\Local\Temp\cc9o2dYU.s 			page 15


 391              	.L25:
 392 00ac 00000000 		.word	messageBox
 393 00b0 10000000 		.word	.LC1
 394 00b4 38000000 		.word	.LC2
 395 00b8 4C000000 		.word	.LC3
 396 00bc 58000000 		.word	.LC4
 397              		.cfi_endproc
 398              	.LFE115:
 399              		.size	Functsk_hmi, .-Functsk_hmi
 400              		.section	.text.Functsk_json,"ax",%progbits
 401              		.align	2
 402              		.global	Functsk_json
 403              		.thumb
 404              		.thumb_func
 405              		.type	Functsk_json, %function
 406              	Functsk_json:
 407              	.LFB116:
 100:source\asw/main.c ****     EventMaskType ev = 0;
 408              		.loc 1 100 0
 409              		.cfi_startproc
 410              		@ args = 0, pretend = 0, frame = 112
 411              		@ frame_needed = 0, uses_anonymous_args = 0
 412 0000 2DE9F041 		push	{r4, r5, r6, r7, r8, lr}
 413              		.cfi_def_cfa_offset 24
 414              		.cfi_offset 4, -24
 415              		.cfi_offset 5, -20
 416              		.cfi_offset 6, -16
 417              		.cfi_offset 7, -12
 418              		.cfi_offset 8, -8
 419              		.cfi_offset 14, -4
 420 0004 9EB0     		sub	sp, sp, #120
 421              		.cfi_def_cfa_offset 144
 422              	.L44:
 104:source\asw/main.c ****         GetEvent(tsk_json, &activeEvents); 
 423              		.loc 1 104 0
 424 0006 0120     		movs	r0, #1
 425 0008 FFF7FEFF 		bl	EE_oo_WaitEvent
 426              	.LVL40:
 105:source\asw/main.c ****         if(activeEvents & ev_eos) {
 427              		.loc 1 105 0
 428 000c 1DA9     		add	r1, sp, #116
 429 000e 0220     		movs	r0, #2
 430 0010 FFF7FEFF 		bl	EE_oo_GetEvent
 431              	.LVL41:
 106:source\asw/main.c ****             PARSER_clear(&jsonParser);
 432              		.loc 1 106 0
 433 0014 1D9B     		ldr	r3, [sp, #116]
 434 0016 13F0010F 		tst	r3, #1
 435 001a 00F00281 		beq	.L28
 436              	.LBB16:
 107:source\asw/main.c ****             uint8_t ringBData;
 437              		.loc 1 107 0
 438 001e 8348     		ldr	r0, .L46
 439 0020 FFF7FEFF 		bl	PARSER_clear
 440              	.LVL42:
 109:source\asw/main.c ****             char debug[32];
 441              		.loc 1 109 0
ARM GAS  C:\Users\abhim\AppData\Local\Temp\cc9o2dYU.s 			page 16


 442 0024 824B     		ldr	r3, .L46+4
 443 0026 DD79     		ldrb	r5, [r3, #7]	@ zero_extendqisi2
 444              	.LVL43:
 445              	.LBB17:
 111:source\asw/main.c ****                 ringBufferRead(&ringBuffer, &ringBData); //Reading from ringbuffer
 446              		.loc 1 111 0
 447 0028 0024     		movs	r4, #0
 448 002a 0BE0     		b	.L29
 449              	.LVL44:
 450              	.L30:
 112:source\asw/main.c ****                 PARSER_addChar(&jsonParser, (char)ringBData); //Writing characters to the jsonparse
 451              		.loc 1 112 0 discriminator 3
 452 002c 0DF10B01 		add	r1, sp, #11
 453 0030 7F48     		ldr	r0, .L46+4
 454 0032 FFF7FEFF 		bl	ringBufferRead
 455              	.LVL45:
 113:source\asw/main.c ****             }
 456              		.loc 1 113 0 discriminator 3
 457 0036 9DF80B10 		ldrb	r1, [sp, #11]	@ zero_extendqisi2
 458 003a 7C48     		ldr	r0, .L46
 459 003c FFF7FEFF 		bl	PARSER_addChar
 460              	.LVL46:
 111:source\asw/main.c ****                 ringBufferRead(&ringBuffer, &ringBData); //Reading from ringbuffer
 461              		.loc 1 111 0 discriminator 3
 462 0040 0134     		adds	r4, r4, #1
 463              	.LVL47:
 464 0042 A4B2     		uxth	r4, r4
 465              	.LVL48:
 466              	.L29:
 111:source\asw/main.c ****                 ringBufferRead(&ringBuffer, &ringBData); //Reading from ringbuffer
 467              		.loc 1 111 0 is_stmt 0 discriminator 1
 468 0044 AC42     		cmp	r4, r5
 469 0046 F1D3     		bcc	.L30
 470              	.LBE17:
 115:source\asw/main.c ****             UART_LOG_PutString(jsonParser.content);
 471              		.loc 1 115 0 is_stmt 1
 472 0048 7A48     		ldr	r0, .L46+8
 473 004a FFF7FEFF 		bl	UART_LOG_PutString
 474              	.LVL49:
 116:source\asw/main.c ****             UART_LOG_PutString("\r\n");
 475              		.loc 1 116 0
 476 004e 7A4C     		ldr	r4, .L46+12
 477              	.LVL50:
 478 0050 2046     		mov	r0, r4
 479 0052 FFF7FEFF 		bl	UART_LOG_PutString
 480              	.LVL51:
 117:source\asw/main.c ****             int parseResult = jsmn_parse(&jsonParser.parser, 
 481              		.loc 1 117 0
 482 0056 7948     		ldr	r0, .L46+16
 483 0058 FFF7FEFF 		bl	UART_LOG_PutString
 484              	.LVL52:
 118:source\asw/main.c ****                                 jsonParser.content, 
 485              		.loc 1 118 0
 486 005c 2046     		mov	r0, r4
 487 005e FFF7FEFF 		bl	strlen
 488              	.LVL53:
 489 0062 A4F10C05 		sub	r5, r4, #12
ARM GAS  C:\Users\abhim\AppData\Local\Temp\cc9o2dYU.s 			page 17


 490              	.LVL54:
 491 0066 8023     		movs	r3, #128
 492 0068 0093     		str	r3, [sp]
 493 006a 04F1C803 		add	r3, r4, #200
 494 006e 0246     		mov	r2, r0
 495 0070 2146     		mov	r1, r4
 496 0072 2846     		mov	r0, r5
 497 0074 FFF7FEFF 		bl	jsmn_parse
 498              	.LVL55:
 124:source\asw/main.c ****             RC_t tokenResult = PARSER_getNextToken(&jsonParser, &token);
 499              		.loc 1 124 0
 500 0078 2846     		mov	r0, r5
 501 007a FFF7FEFF 		bl	PARSER_resetNextToken
 502              	.LVL56:
 125:source\asw/main.c ****             UART_LOG_PutString("Starting to process tokens\r\n");
 503              		.loc 1 125 0
 504 007e 09A9     		add	r1, sp, #36
 505 0080 2846     		mov	r0, r5
 506 0082 FFF7FEFF 		bl	PARSER_getNextToken
 507              	.LVL57:
 126:source\asw/main.c ****             while(PARSER_getNextToken(&jsonParser, &token) == RC_SUCCESS) {
 508              		.loc 1 126 0
 509 0086 6E48     		ldr	r0, .L46+20
 510 0088 FFF7FEFF 		bl	UART_LOG_PutString
 511              	.LVL58:
 127:source\asw/main.c ****                 if(token.type == JSMN_STRING) {
 512              		.loc 1 127 0
 513 008c C2E0     		b	.L32
 514              	.L43:
 128:source\asw/main.c ****                         char key[10];
 515              		.loc 1 128 0
 516 008e 9DF82430 		ldrb	r3, [sp, #36]	@ zero_extendqisi2
 517 0092 042B     		cmp	r3, #4
 518 0094 40F0BE80 		bne	.L32
 519              	.LBB18:
 130:source\asw/main.c ****                         strncpy(key, &jsonParser.content[token.start], keyLen);
 520              		.loc 1 130 0
 521 0098 0A9B     		ldr	r3, [sp, #40]
 522 009a 0B9C     		ldr	r4, [sp, #44]
 523 009c E41A     		subs	r4, r4, r3
 524              	.LVL59:
 131:source\asw/main.c ****                         key[keyLen] = '\0';
 525              		.loc 1 131 0
 526 009e 0833     		adds	r3, r3, #8
 527 00a0 624D     		ldr	r5, .L46
 528 00a2 5919     		adds	r1, r3, r5
 529 00a4 2246     		mov	r2, r4
 530 00a6 0431     		adds	r1, r1, #4
 531 00a8 03A8     		add	r0, sp, #12
 532 00aa FFF7FEFF 		bl	strncpy
 533              	.LVL60:
 132:source\asw/main.c ****                         sprintf(debug, "Found key: %s\r\n", key);
 534              		.loc 1 132 0
 535 00ae 1EAB     		add	r3, sp, #120
 536 00b0 1C44     		add	r4, r4, r3
 537              	.LVL61:
 538 00b2 0023     		movs	r3, #0
ARM GAS  C:\Users\abhim\AppData\Local\Temp\cc9o2dYU.s 			page 18


 539 00b4 04F86C3C 		strb	r3, [r4, #-108]
 133:source\asw/main.c ****                         UART_LOG_PutString(debug);
 540              		.loc 1 133 0
 541 00b8 03AA     		add	r2, sp, #12
 542 00ba 6249     		ldr	r1, .L46+24
 543 00bc 15A8     		add	r0, sp, #84
 544 00be FFF7FEFF 		bl	sprintf
 545              	.LVL62:
 134:source\asw/main.c ****                         jsmntok_t valueToken;
 546              		.loc 1 134 0
 547 00c2 15A8     		add	r0, sp, #84
 548 00c4 FFF7FEFF 		bl	UART_LOG_PutString
 549              	.LVL63:
 136:source\asw/main.c ****                         if(valueResult != RC_SUCCESS) {
 550              		.loc 1 136 0
 551 00c8 0DA9     		add	r1, sp, #52
 552 00ca 2846     		mov	r0, r5
 553 00cc FFF7FEFF 		bl	PARSER_getNextToken
 554              	.LVL64:
 137:source\asw/main.c ****                             UART_LOG_PutString("Failed to get value token\r\n");
 555              		.loc 1 137 0
 556 00d0 18B1     		cbz	r0, .L33
 138:source\asw/main.c ****                             continue;
 557              		.loc 1 138 0
 558 00d2 5D48     		ldr	r0, .L46+28
 559              	.LVL65:
 560 00d4 FFF7FEFF 		bl	UART_LOG_PutString
 561              	.LVL66:
 139:source\asw/main.c ****                         }                       
 562              		.loc 1 139 0
 563 00d8 9CE0     		b	.L32
 564              	.LVL67:
 565              	.L33:
 141:source\asw/main.c ****                             if(valueToken.type == JSMN_STRING) {
 566              		.loc 1 141 0
 567 00da 5C49     		ldr	r1, .L46+32
 568 00dc 03A8     		add	r0, sp, #12
 569              	.LVL68:
 570 00de FFF7FEFF 		bl	strcmp
 571              	.LVL69:
 572 00e2 0028     		cmp	r0, #0
 573 00e4 46D1     		bne	.L35
 142:source\asw/main.c ****                                 char colorValue[20];
 574              		.loc 1 142 0
 575 00e6 9DF83430 		ldrb	r3, [sp, #52]	@ zero_extendqisi2
 576 00ea 042B     		cmp	r3, #4
 577 00ec 40F09280 		bne	.L32
 578              	.LBB19:
 144:source\asw/main.c ****                                 if (drawer != NULL) {
 579              		.loc 1 144 0
 580 00f0 0820     		movs	r0, #8
 581 00f2 FFF7FEFF 		bl	malloc
 582              	.LVL70:
 145:source\asw/main.c ****                                     memset(drawer, 0, sizeof(drawer_t));
 583              		.loc 1 145 0
 584 00f6 0446     		mov	r4, r0
 585 00f8 10B1     		cbz	r0, .L37
ARM GAS  C:\Users\abhim\AppData\Local\Temp\cc9o2dYU.s 			page 19


 146:source\asw/main.c ****                                 }
 586              		.loc 1 146 0
 587 00fa 0023     		movs	r3, #0
 588 00fc 0360     		str	r3, [r0]	@ unaligned
 589 00fe 4360     		str	r3, [r0, #4]	@ unaligned
 590              	.L37:
 148:source\asw/main.c ****                                 if (message != NULL) {
 591              		.loc 1 148 0
 592 0100 0820     		movs	r0, #8
 593              	.LVL71:
 594 0102 FFF7FEFF 		bl	malloc
 595              	.LVL72:
 149:source\asw/main.c ****                                     memset(drawer, 0, sizeof(message_t));
 596              		.loc 1 149 0
 597 0106 0646     		mov	r6, r0
 598 0108 10B1     		cbz	r0, .L38
 150:source\asw/main.c ****                                 }
 599              		.loc 1 150 0
 600 010a 0023     		movs	r3, #0
 601 010c 2360     		str	r3, [r4]	@ unaligned
 602 010e 6360     		str	r3, [r4, #4]	@ unaligned
 603              	.L38:
 152:source\asw/main.c ****                                 int valueLen = valueToken.end - valueToken.start;
 604              		.loc 1 152 0
 605 0110 3046     		mov	r0, r6
 606              	.LVL73:
 607 0112 FFF7FEFF 		bl	initMessage
 608              	.LVL74:
 153:source\asw/main.c ****                                 drawer->data.color = malloc(valueLen + 1);
 609              		.loc 1 153 0
 610 0116 0E9B     		ldr	r3, [sp, #56]
 611 0118 0F9D     		ldr	r5, [sp, #60]
 612 011a ED1A     		subs	r5, r5, r3
 613              	.LVL75:
 154:source\asw/main.c ****                                 if (drawer->data.color == NULL) {
 614              		.loc 1 154 0
 615 011c 681C     		adds	r0, r5, #1
 616 011e FFF7FEFF 		bl	malloc
 617              	.LVL76:
 618 0122 6060     		str	r0, [r4, #4]
 155:source\asw/main.c ****                                         freeDrawer(drawer); 
 619              		.loc 1 155 0
 620 0124 30B9     		cbnz	r0, .L39
 156:source\asw/main.c ****                                         UART_LOG_PutString("Memory allocation for color failed!\r\n
 621              		.loc 1 156 0
 622 0126 2046     		mov	r0, r4
 623 0128 FFF7FEFF 		bl	freeDrawer
 624              	.LVL77:
 157:source\asw/main.c ****                                         continue;
 625              		.loc 1 157 0
 626 012c 4848     		ldr	r0, .L46+36
 627 012e FFF7FEFF 		bl	UART_LOG_PutString
 628              	.LVL78:
 629 0132 6FE0     		b	.L32
 630              	.L39:
 160:source\asw/main.c ****                                 drawer->data.color[valueLen] = '\0';
 631              		.loc 1 160 0
ARM GAS  C:\Users\abhim\AppData\Local\Temp\cc9o2dYU.s 			page 20


 632 0134 0E9B     		ldr	r3, [sp, #56]
 633 0136 03F10801 		add	r1, r3, #8
 634 013a 3C4B     		ldr	r3, .L46
 635 013c 1944     		add	r1, r1, r3
 636 013e 2A46     		mov	r2, r5
 637 0140 0431     		adds	r1, r1, #4
 638 0142 FFF7FEFF 		bl	strncpy
 639              	.LVL79:
 161:source\asw/main.c ****                                
 640              		.loc 1 161 0
 641 0146 6268     		ldr	r2, [r4, #4]
 642 0148 0023     		movs	r3, #0
 643 014a 5355     		strb	r3, [r2, r5]
 163:source\asw/main.c ****                                 createMessage(message,sizeof(message_t),drawer);
 644              		.loc 1 163 0
 645 014c 2370     		strb	r3, [r4]
 164:source\asw/main.c ****                                 MSG_sendMessage(&messageBox,message,sizeof(message_t));
 646              		.loc 1 164 0
 647 014e 2246     		mov	r2, r4
 648 0150 0821     		movs	r1, #8
 649 0152 3046     		mov	r0, r6
 650 0154 FFF7FEFF 		bl	createMessage
 651              	.LVL80:
 165:source\asw/main.c ****                                 sprintf(debug, "Color value: %s\r\n", drawer->data.color);
 652              		.loc 1 165 0
 653 0158 0822     		movs	r2, #8
 654 015a 3146     		mov	r1, r6
 655 015c 3D48     		ldr	r0, .L46+40
 656 015e FFF7FEFF 		bl	MSG_sendMessage
 657              	.LVL81:
 166:source\asw/main.c ****                                 UART_LOG_PutString(debug);
 658              		.loc 1 166 0
 659 0162 6268     		ldr	r2, [r4, #4]
 660 0164 3C49     		ldr	r1, .L46+44
 661 0166 15A8     		add	r0, sp, #84
 662 0168 FFF7FEFF 		bl	sprintf
 663              	.LVL82:
 167:source\asw/main.c ****                             }
 664              		.loc 1 167 0
 665 016c 15A8     		add	r0, sp, #84
 666 016e FFF7FEFF 		bl	UART_LOG_PutString
 667              	.LVL83:
 668 0172 4FE0     		b	.L32
 669              	.LVL84:
 670              	.L35:
 671              	.LBE19:
 170:source\asw/main.c ****                             if(valueToken.type == JSMN_ARRAY) {
 672              		.loc 1 170 0
 673 0174 3949     		ldr	r1, .L46+48
 674 0176 03A8     		add	r0, sp, #12
 675 0178 FFF7FEFF 		bl	strcmp
 676              	.LVL85:
 677 017c 0028     		cmp	r0, #0
 678 017e 49D1     		bne	.L32
 171:source\asw/main.c ****                                 drawer_t *drawer = malloc(sizeof(drawer_t));
 679              		.loc 1 171 0
 680 0180 9DF83430 		ldrb	r3, [sp, #52]	@ zero_extendqisi2
ARM GAS  C:\Users\abhim\AppData\Local\Temp\cc9o2dYU.s 			page 21


 681 0184 022B     		cmp	r3, #2
 682 0186 45D1     		bne	.L32
 683              	.LBB20:
 172:source\asw/main.c ****                                 message_t *message = malloc(sizeof(message_t));
 684              		.loc 1 172 0
 685 0188 0820     		movs	r0, #8
 686 018a FFF7FEFF 		bl	malloc
 687              	.LVL86:
 688 018e 8046     		mov	r8, r0
 689              	.LVL87:
 173:source\asw/main.c ****                                 initMessage(message);
 690              		.loc 1 173 0
 691 0190 0820     		movs	r0, #8
 692              	.LVL88:
 693 0192 FFF7FEFF 		bl	malloc
 694              	.LVL89:
 695 0196 0746     		mov	r7, r0
 696              	.LVL90:
 174:source\asw/main.c ****                                 sprintf(debug, "Found array with size: %d\r\n", valueToken.size);
 697              		.loc 1 174 0
 698 0198 FFF7FEFF 		bl	initMessage
 699              	.LVL91:
 175:source\asw/main.c ****                                 UART_LOG_PutString(debug);
 700              		.loc 1 175 0
 701 019c 109A     		ldr	r2, [sp, #64]
 702 019e 3049     		ldr	r1, .L46+52
 703 01a0 15A8     		add	r0, sp, #84
 704 01a2 FFF7FEFF 		bl	sprintf
 705              	.LVL92:
 176:source\asw/main.c ****                                     
 706              		.loc 1 176 0
 707 01a6 15A8     		add	r0, sp, #84
 708 01a8 FFF7FEFF 		bl	UART_LOG_PutString
 709              	.LVL93:
 710              	.LBB21:
 178:source\asw/main.c ****                                     jsmntok_t arrayToken;
 711              		.loc 1 178 0
 712 01ac 0025     		movs	r5, #0
 713 01ae 2EE0     		b	.L40
 714              	.LVL94:
 715              	.L41:
 716              	.LBB22:
 180:source\asw/main.c ****                                     
 717              		.loc 1 180 0 discriminator 3
 718 01b0 1E4E     		ldr	r6, .L46
 719 01b2 11A9     		add	r1, sp, #68
 720 01b4 3046     		mov	r0, r6
 721 01b6 FFF7FEFF 		bl	PARSER_getNextToken
 722              	.LVL95:
 183:source\asw/main.c ****                                     strncpy(numStr, &jsonParser.content[arrayToken.start], numLen);
 723              		.loc 1 183 0 discriminator 3
 724 01ba 129B     		ldr	r3, [sp, #72]
 725 01bc 139C     		ldr	r4, [sp, #76]
 726 01be E41A     		subs	r4, r4, r3
 727              	.LVL96:
 184:source\asw/main.c ****                                     numStr[numLen] = '\0'; //Added for atoi
 728              		.loc 1 184 0 discriminator 3
ARM GAS  C:\Users\abhim\AppData\Local\Temp\cc9o2dYU.s 			page 22


 729 01c0 0833     		adds	r3, r3, #8
 730 01c2 9919     		adds	r1, r3, r6
 731 01c4 2246     		mov	r2, r4
 732 01c6 0431     		adds	r1, r1, #4
 733 01c8 06A8     		add	r0, sp, #24
 734 01ca FFF7FEFF 		bl	strncpy
 735              	.LVL97:
 185:source\asw/main.c ****                                    
 736              		.loc 1 185 0 discriminator 3
 737 01ce 1EAB     		add	r3, sp, #120
 738 01d0 1C44     		add	r4, r4, r3
 739              	.LVL98:
 740 01d2 0023     		movs	r3, #0
 741 01d4 04F8603C 		strb	r3, [r4, #-96]
 187:source\asw/main.c ****                                     drawer->data.coordinate[i]= number;
 742              		.loc 1 187 0 discriminator 3
 743 01d8 06A8     		add	r0, sp, #24
 744 01da FFF7FEFF 		bl	atoi
 745              	.LVL99:
 746 01de 0446     		mov	r4, r0
 747              	.LVL100:
 188:source\asw/main.c ****                                     createMessage(message,sizeof(drawer),drawer);
 748              		.loc 1 188 0 discriminator 3
 749 01e0 08EB0503 		add	r3, r8, r5
 750 01e4 1871     		strb	r0, [r3, #4]
 189:source\asw/main.c ****                                     MSG_sendMessage(&messageBox,message,sizeof(message_t));
 751              		.loc 1 189 0 discriminator 3
 752 01e6 4246     		mov	r2, r8
 753 01e8 0421     		movs	r1, #4
 754 01ea 3846     		mov	r0, r7
 755              	.LVL101:
 756 01ec FFF7FEFF 		bl	createMessage
 757              	.LVL102:
 190:source\asw/main.c ****                                     sprintf(debug, "Array value[%d]: %d\r\n", i, number);
 758              		.loc 1 190 0 discriminator 3
 759 01f0 0822     		movs	r2, #8
 760 01f2 3946     		mov	r1, r7
 761 01f4 1748     		ldr	r0, .L46+40
 762 01f6 FFF7FEFF 		bl	MSG_sendMessage
 763              	.LVL103:
 191:source\asw/main.c ****                                     UART_LOG_PutString(debug);
 764              		.loc 1 191 0 discriminator 3
 765 01fa 2346     		mov	r3, r4
 766 01fc 2A46     		mov	r2, r5
 767 01fe 1949     		ldr	r1, .L46+56
 768 0200 15A8     		add	r0, sp, #84
 769 0202 FFF7FEFF 		bl	sprintf
 770              	.LVL104:
 192:source\asw/main.c ****                                 }
 771              		.loc 1 192 0 discriminator 3
 772 0206 15A8     		add	r0, sp, #84
 773 0208 FFF7FEFF 		bl	UART_LOG_PutString
 774              	.LVL105:
 775              	.LBE22:
 178:source\asw/main.c ****                                     jsmntok_t arrayToken;
 776              		.loc 1 178 0 discriminator 3
 777 020c 0135     		adds	r5, r5, #1
ARM GAS  C:\Users\abhim\AppData\Local\Temp\cc9o2dYU.s 			page 23


 778              	.LVL106:
 779              	.L40:
 178:source\asw/main.c ****                                     jsmntok_t arrayToken;
 780              		.loc 1 178 0 is_stmt 0 discriminator 1
 781 020e 109B     		ldr	r3, [sp, #64]
 782 0210 9D42     		cmp	r5, r3
 783 0212 CDDB     		blt	.L41
 784              	.LVL107:
 785              	.L32:
 786              	.LBE21:
 787              	.LBE20:
 788              	.LBE18:
 127:source\asw/main.c ****                 if(token.type == JSMN_STRING) {
 789              		.loc 1 127 0 is_stmt 1
 790 0214 09A9     		add	r1, sp, #36
 791 0216 0548     		ldr	r0, .L46
 792 0218 FFF7FEFF 		bl	PARSER_getNextToken
 793              	.LVL108:
 794 021c 0028     		cmp	r0, #0
 795 021e 3FF436AF 		beq	.L43
 796              	.L28:
 797              	.LBE16:
 199:source\asw/main.c ****     }
 798              		.loc 1 199 0
 799 0222 1D98     		ldr	r0, [sp, #116]
 800 0224 FFF7FEFF 		bl	EE_oo_ClearEvent
 801              	.LVL109:
 200:source\asw/main.c ****     TerminateTask();
 802              		.loc 1 200 0
 803 0228 EDE6     		b	.L44
 804              	.L47:
 805 022a 00BF     		.align	2
 806              	.L46:
 807 022c 00000000 		.word	jsonParser
 808 0230 00000000 		.word	ringBuffer
 809 0234 8C000000 		.word	.LC5
 810 0238 0C000000 		.word	jsonParser+12
 811 023c 9C000000 		.word	.LC6
 812 0240 A0000000 		.word	.LC7
 813 0244 C0000000 		.word	.LC8
 814 0248 D0000000 		.word	.LC9
 815 024c EC000000 		.word	.LC10
 816 0250 F0000000 		.word	.LC11
 817 0254 00000000 		.word	messageBox
 818 0258 18010000 		.word	.LC12
 819 025c 2C010000 		.word	.LC13
 820 0260 30010000 		.word	.LC14
 821 0264 4C010000 		.word	.LC15
 822              		.cfi_endproc
 823              	.LFE116:
 824              		.size	Functsk_json, .-Functsk_json
 825              		.section	.text.unhandledException,"ax",%progbits
 826              		.align	2
 827              		.global	unhandledException
 828              		.thumb
 829              		.thumb_func
 830              		.type	unhandledException, %function
ARM GAS  C:\Users\abhim\AppData\Local\Temp\cc9o2dYU.s 			page 24


 831              	unhandledException:
 832              	.LFB117:
 205:source\asw/main.c ****     //Ooops, something terrible happened....check the call stack to see how we got here...
 833              		.loc 1 205 0
 834              		.cfi_startproc
 835              		@ args = 0, pretend = 0, frame = 0
 836              		@ frame_needed = 0, uses_anonymous_args = 0
 837              		@ link register save eliminated.
 207:source\asw/main.c **** }
 838              		.loc 1 207 0
 839              		.syntax unified
 840              	@ 207 "source\asw\main.c" 1
 841 0000 00BE     		bkpt
 842              	@ 0 "" 2
 843              		.thumb
 844              		.syntax unified
 845 0002 7047     		bx	lr
 846              		.cfi_endproc
 847              	.LFE117:
 848              		.size	unhandledException, .-unhandledException
 849              		.comm	messageBox,16,4
 850              		.comm	jsonParser,2264,4
 851              		.comm	ringBuffer,8,4
 852              		.section	.rodata.str1.4,"aMS",%progbits,1
 853              		.align	2
 854              	.LC0:
 855 0000 48656C6C 		.ascii	"Hello world\012\000"
 855      6F20776F 
 855      726C640A 
 855      00
 856 000d 000000   		.space	3
 857              	.LC1:
 858 0010 53697A65 		.ascii	"Size of the msg from task hmi : %d\015\012\000"
 858      206F6620 
 858      74686520 
 858      6D736720 
 858      66726F6D 
 859 0035 000000   		.space	3
 860              	.LC2:
 861 0038 52656365 		.ascii	"Received Message:\015\012\000"
 861      69766564 
 861      204D6573 
 861      73616765 
 861      3A0D0A00 
 862              	.LC3:
 863 004c 53697A65 		.ascii	"Size: %d\015\012\000"
 863      3A202564 
 863      0D0A00
 864 0057 00       		.space	1
 865              	.LC4:
 866 0058 44726177 		.ascii	"Drawer Coordinates from HMI TASK: %d, %d, %d, %d\015"
 866      65722043 
 866      6F6F7264 
 866      696E6174 
 866      65732066 
 867 0089 0A00     		.ascii	"\012\000"
 868 008b 00       		.space	1
ARM GAS  C:\Users\abhim\AppData\Local\Temp\cc9o2dYU.s 			page 25


 869              	.LC5:
 870 008c 52656365 		.ascii	"Received JSON: \000"
 870      69766564 
 870      204A534F 
 870      4E3A2000 
 871              	.LC6:
 872 009c 0D0A00   		.ascii	"\015\012\000"
 873 009f 00       		.space	1
 874              	.LC7:
 875 00a0 53746172 		.ascii	"Starting to process tokens\015\012\000"
 875      74696E67 
 875      20746F20 
 875      70726F63 
 875      65737320 
 876 00bd 000000   		.space	3
 877              	.LC8:
 878 00c0 466F756E 		.ascii	"Found key: %s\015\012\000"
 878      64206B65 
 878      793A2025 
 878      730D0A00 
 879              	.LC9:
 880 00d0 4661696C 		.ascii	"Failed to get value token\015\012\000"
 880      65642074 
 880      6F206765 
 880      74207661 
 880      6C756520 
 881              	.LC10:
 882 00ec 6300     		.ascii	"c\000"
 883 00ee 0000     		.space	2
 884              	.LC11:
 885 00f0 4D656D6F 		.ascii	"Memory allocation for color failed!\015\012\000"
 885      72792061 
 885      6C6C6F63 
 885      6174696F 
 885      6E20666F 
 886 0116 0000     		.space	2
 887              	.LC12:
 888 0118 436F6C6F 		.ascii	"Color value: %s\015\012\000"
 888      72207661 
 888      6C75653A 
 888      2025730D 
 888      0A00
 889 012a 0000     		.space	2
 890              	.LC13:
 891 012c 6400     		.ascii	"d\000"
 892 012e 0000     		.space	2
 893              	.LC14:
 894 0130 466F756E 		.ascii	"Found array with size: %d\015\012\000"
 894      64206172 
 894      72617920 
 894      77697468 
 894      2073697A 
 895              	.LC15:
 896 014c 41727261 		.ascii	"Array value[%d]: %d\015\012\000"
 896      79207661 
 896      6C75655B 
 896      25645D3A 
ARM GAS  C:\Users\abhim\AppData\Local\Temp\cc9o2dYU.s 			page 26


 896      2025640D 
 897              		.text
 898              	.Letext0:
 899              		.file 3 "c:\\program files (x86)\\cypress\\psoc creator\\4.4\\psoc creator\\import\\gnu\\arm\\5.4.
 900              		.file 4 "c:\\program files (x86)\\cypress\\psoc creator\\4.4\\psoc creator\\import\\gnu\\arm\\5.4.
 901              		.file 5 "Generated_Source\\PSoC5/ErikaOS_common_ee_types.inc"
 902              		.file 6 "Generated_Source\\PSoC5/ErikaOS_cortex_mx_ee_cpu.inc"
 903              		.file 7 "Generated_Source\\PSoC5/ErikaOS_ee_oo_common.inc"
 904              		.file 8 ".\\source\\bsw/global.h"
 905              		.file 9 "./jsmn.h"
 906              		.file 10 ".\\source\\bsw/parserNew.h"
 907              		.file 11 ".\\source\\bsw/CRingBuffer.h"
 908              		.file 12 ".\\source\\bsw/drawer.h"
 909              		.file 13 ".\\source\\bsw/message.h"
 910              		.file 14 ".\\source\\bsw/messageBox.h"
 911              		.file 15 ".\\source\\bsw/tft/tft.h"
 912              		.file 16 "Generated_Source\\PSoC5/ErikaOS_ee_oo_intfunc.inc"
 913              		.file 17 "Generated_Source\\PSoC5/ErikaOS_cortex_mx_ee_context.inc"
 914              		.file 18 "Generated_Source\\PSoC5/ErikaOS_common_ee_primitives.inc"
 915              		.file 19 "Generated_Source\\PSoC5/core_cm3.h"
 916              		.file 20 "Generated_Source\\PSoC5/isr_uart.h"
 917              		.file 21 "Generated_Source\\PSoC5/UART_LOG.h"
 918              		.file 22 "Generated_Source\\PSoC5/ErikaOS_ee_oo_kernel.inc"
 919              		.file 23 "c:\\program files (x86)\\cypress\\psoc creator\\4.4\\psoc creator\\import\\gnu\\arm\\5.4
 920              		.file 24 "c:\\program files (x86)\\cypress\\psoc creator\\4.4\\psoc creator\\import\\gnu\\arm\\5.4
 921              		.file 25 "c:\\program files (x86)\\cypress\\psoc creator\\4.4\\psoc creator\\import\\gnu\\arm\\5.4