ARM GAS  C:\Users\abhim\AppData\Local\Temp\ccXFvHnj.s 			page 1


   1              		.syntax unified
   2              		.cpu cortex-m3
   3              		.fpu softvfp
   4              		.eabi_attribute 20, 1
   5              		.eabi_attribute 21, 1
   6              		.eabi_attribute 23, 3
   7              		.eabi_attribute 24, 1
   8              		.eabi_attribute 25, 1
   9              		.eabi_attribute 26, 1
  10              		.eabi_attribute 30, 1
  11              		.eabi_attribute 34, 1
  12              		.eabi_attribute 18, 4
  13              		.thumb
  14              		.syntax unified
  15              		.file	"parserNew.c"
  16              		.text
  17              	.Ltext0:
  18              		.cfi_sections	.debug_frame
  19              		.section	.text.PARSER_init,"ax",%progbits
  20              		.align	2
  21              		.global	PARSER_init
  22              		.thumb
  23              		.thumb_func
  24              		.type	PARSER_init, %function
  25              	PARSER_init:
  26              	.LFB111:
  27              		.file 1 "source\\bsw\\parserNew.c"
   1:source\bsw/parserNew.c **** /**
   2:source\bsw/parserNew.c **** * \file <filename>
   3:source\bsw/parserNew.c **** * \author <author-name>
   4:source\bsw/parserNew.c **** * \date <date>
   5:source\bsw/parserNew.c **** *
   6:source\bsw/parserNew.c **** * \brief <Symbolic File name>
   7:source\bsw/parserNew.c **** *
   8:source\bsw/parserNew.c **** * \copyright Copyright ©2016
   9:source\bsw/parserNew.c **** * Department of electrical engineering and information technology, Hochschule Darmstadt - Universit
  10:source\bsw/parserNew.c **** * Permission to use, copy, modify, and distribute this software and its documentation for education
  11:source\bsw/parserNew.c **** * (unless permitted by h_da) and official h_da projects, is hereby granted for enrolled students of
  12:source\bsw/parserNew.c **** * this paragraph and the following paragraph appear in all copies, modifications, and distributions
  13:source\bsw/parserNew.c **** * Contact Prof.Dr.-Ing. Peter Fromm, peter.fromm@h-da.de, Birkenweg 8 64295 Darmstadt - GERMANY for
  14:source\bsw/parserNew.c **** *
  15:source\bsw/parserNew.c **** * \warning This software is a PROTOTYPE version and is not designed or intended for use in producti
  16:source\bsw/parserNew.c **** * The user represents and warrants that it will NOT use or redistribute the Software for such purpo
  17:source\bsw/parserNew.c **** * This prototype is for research purposes only. This software is provided "AS IS," without a warran
  18:source\bsw/parserNew.c **** */
  19:source\bsw/parserNew.c **** 
  20:source\bsw/parserNew.c **** /*****************************************************************************/
  21:source\bsw/parserNew.c **** /* Include files                                                             */
  22:source\bsw/parserNew.c **** /*****************************************************************************/
  23:source\bsw/parserNew.c **** 
  24:source\bsw/parserNew.c **** #include "parserNew.h"
  25:source\bsw/parserNew.c **** #include <string.h>
  26:source\bsw/parserNew.c **** #include <stdio.h>
  27:source\bsw/parserNew.c **** 
  28:source\bsw/parserNew.c **** /*****************************************************************************/
  29:source\bsw/parserNew.c **** /* Local pre-processor symbols/macros ('#define')                            */
  30:source\bsw/parserNew.c **** /*****************************************************************************/
ARM GAS  C:\Users\abhim\AppData\Local\Temp\ccXFvHnj.s 			page 2


  31:source\bsw/parserNew.c **** 
  32:source\bsw/parserNew.c **** /*****************************************************************************/
  33:source\bsw/parserNew.c **** /* Global variable definitions (declared in header file with 'extern')       */
  34:source\bsw/parserNew.c **** /*****************************************************************************/
  35:source\bsw/parserNew.c **** 
  36:source\bsw/parserNew.c **** /*****************************************************************************/
  37:source\bsw/parserNew.c **** /* Local type definitions ('typedef')                                        */
  38:source\bsw/parserNew.c **** /*****************************************************************************/
  39:source\bsw/parserNew.c **** 
  40:source\bsw/parserNew.c **** /*****************************************************************************/
  41:source\bsw/parserNew.c **** /* Local variable definitions ('static')                                     */
  42:source\bsw/parserNew.c **** /*****************************************************************************/
  43:source\bsw/parserNew.c **** 
  44:source\bsw/parserNew.c **** 
  45:source\bsw/parserNew.c **** 
  46:source\bsw/parserNew.c **** /*****************************************************************************/
  47:source\bsw/parserNew.c **** /* Local function prototypes ('static')                                      */
  48:source\bsw/parserNew.c **** /*****************************************************************************/
  49:source\bsw/parserNew.c **** 
  50:source\bsw/parserNew.c **** 
  51:source\bsw/parserNew.c **** /*****************************************************************************/
  52:source\bsw/parserNew.c **** /* Function implementation - global ('extern') and local ('static')          */
  53:source\bsw/parserNew.c **** /*****************************************************************************/
  54:source\bsw/parserNew.c **** 
  55:source\bsw/parserNew.c **** /**
  56:source\bsw/parserNew.c ****  * <Description>
  57:source\bsw/parserNew.c ****  * \param <first para>
  58:source\bsw/parserNew.c ****  * \return <return value>
  59:source\bsw/parserNew.c ****  */
  60:source\bsw/parserNew.c **** RC_t PARSER_init(Parser_t *const me) {
  28              		.loc 1 60 0
  29              		.cfi_startproc
  30              		@ args = 0, pretend = 0, frame = 0
  31              		@ frame_needed = 0, uses_anonymous_args = 0
  32              	.LVL0:
  61:source\bsw/parserNew.c ****     if (!me) return RC_ERROR;
  33              		.loc 1 61 0
  34 0000 78B1     		cbz	r0, .L3
  60:source\bsw/parserNew.c ****     if (!me) return RC_ERROR;
  35              		.loc 1 60 0
  36 0002 10B5     		push	{r4, lr}
  37              		.cfi_def_cfa_offset 8
  38              		.cfi_offset 4, -8
  39              		.cfi_offset 14, -4
  40 0004 0446     		mov	r4, r0
  62:source\bsw/parserNew.c ****     
  63:source\bsw/parserNew.c ****     // Initialize the jsmn parser
  64:source\bsw/parserNew.c ****     jsmn_init(&me->parser);
  41              		.loc 1 64 0
  42 0006 FFF7FEFF 		bl	jsmn_init
  43              	.LVL1:
  65:source\bsw/parserNew.c ****     
  66:source\bsw/parserNew.c ****     // Clear the content buffer
  67:source\bsw/parserNew.c ****     memset(me->content, 0, PARSERSTRINGSIZE);
  44              		.loc 1 67 0
  45 000a C822     		movs	r2, #200
  46 000c 0021     		movs	r1, #0
ARM GAS  C:\Users\abhim\AppData\Local\Temp\ccXFvHnj.s 			page 3


  47 000e 04F10C00 		add	r0, r4, #12
  48 0012 FFF7FEFF 		bl	memset
  49              	.LVL2:
  68:source\bsw/parserNew.c ****     
  69:source\bsw/parserNew.c ****     // Initialize positions
  70:source\bsw/parserNew.c ****     me->nextFreePos = 0;
  50              		.loc 1 70 0
  51 0016 0020     		movs	r0, #0
  52 0018 A4F8D408 		strh	r0, [r4, #2260]	@ movhi
  71:source\bsw/parserNew.c ****     me->nextToken = 0;
  53              		.loc 1 71 0
  54 001c A4F8D608 		strh	r0, [r4, #2262]	@ movhi
  72:source\bsw/parserNew.c ****     
  73:source\bsw/parserNew.c ****     return RC_SUCCESS;
  55              		.loc 1 73 0
  56 0020 10BD     		pop	{r4, pc}
  57              	.LVL3:
  58              	.L3:
  59              		.cfi_def_cfa_offset 0
  60              		.cfi_restore 4
  61              		.cfi_restore 14
  61:source\bsw/parserNew.c ****     
  62              		.loc 1 61 0
  63 0022 4FF0FF30 		mov	r0, #-1
  64              	.LVL4:
  65 0026 7047     		bx	lr
  66              		.cfi_endproc
  67              	.LFE111:
  68              		.size	PARSER_init, .-PARSER_init
  69              		.section	.text.PARSER_clear,"ax",%progbits
  70              		.align	2
  71              		.global	PARSER_clear
  72              		.thumb
  73              		.thumb_func
  74              		.type	PARSER_clear, %function
  75              	PARSER_clear:
  76              	.LFB112:
  74:source\bsw/parserNew.c **** }
  75:source\bsw/parserNew.c **** 
  76:source\bsw/parserNew.c **** RC_t PARSER_clear(Parser_t *const me) {
  77              		.loc 1 76 0
  78              		.cfi_startproc
  79              		@ args = 0, pretend = 0, frame = 0
  80              		@ frame_needed = 0, uses_anonymous_args = 0
  81              	.LVL5:
  77:source\bsw/parserNew.c ****     if (!me) return RC_ERROR;
  82              		.loc 1 77 0
  83 0000 78B1     		cbz	r0, .L8
  76:source\bsw/parserNew.c ****     if (!me) return RC_ERROR;
  84              		.loc 1 76 0
  85 0002 10B5     		push	{r4, lr}
  86              		.cfi_def_cfa_offset 8
  87              		.cfi_offset 4, -8
  88              		.cfi_offset 14, -4
  89 0004 0446     		mov	r4, r0
  78:source\bsw/parserNew.c ****     
  79:source\bsw/parserNew.c ****     // Reset the parser
ARM GAS  C:\Users\abhim\AppData\Local\Temp\ccXFvHnj.s 			page 4


  80:source\bsw/parserNew.c ****     jsmn_init(&me->parser);
  90              		.loc 1 80 0
  91 0006 FFF7FEFF 		bl	jsmn_init
  92              	.LVL6:
  81:source\bsw/parserNew.c ****     
  82:source\bsw/parserNew.c ****     // Clear content buffer
  83:source\bsw/parserNew.c ****     memset(me->content, 0, PARSERSTRINGSIZE);
  93              		.loc 1 83 0
  94 000a C822     		movs	r2, #200
  95 000c 0021     		movs	r1, #0
  96 000e 04F10C00 		add	r0, r4, #12
  97 0012 FFF7FEFF 		bl	memset
  98              	.LVL7:
  84:source\bsw/parserNew.c ****     
  85:source\bsw/parserNew.c ****     // Reset positions
  86:source\bsw/parserNew.c ****     me->nextFreePos = 0;
  99              		.loc 1 86 0
 100 0016 0020     		movs	r0, #0
 101 0018 A4F8D408 		strh	r0, [r4, #2260]	@ movhi
  87:source\bsw/parserNew.c ****     me->nextToken = 0;
 102              		.loc 1 87 0
 103 001c A4F8D608 		strh	r0, [r4, #2262]	@ movhi
  88:source\bsw/parserNew.c ****     
  89:source\bsw/parserNew.c ****     return RC_SUCCESS;
 104              		.loc 1 89 0
 105 0020 10BD     		pop	{r4, pc}
 106              	.LVL8:
 107              	.L8:
 108              		.cfi_def_cfa_offset 0
 109              		.cfi_restore 4
 110              		.cfi_restore 14
  77:source\bsw/parserNew.c ****     
 111              		.loc 1 77 0
 112 0022 4FF0FF30 		mov	r0, #-1
 113              	.LVL9:
 114 0026 7047     		bx	lr
 115              		.cfi_endproc
 116              	.LFE112:
 117              		.size	PARSER_clear, .-PARSER_clear
 118              		.section	.text.PARSER_addChar,"ax",%progbits
 119              		.align	2
 120              		.global	PARSER_addChar
 121              		.thumb
 122              		.thumb_func
 123              		.type	PARSER_addChar, %function
 124              	PARSER_addChar:
 125              	.LFB113:
  90:source\bsw/parserNew.c **** }
  91:source\bsw/parserNew.c **** 
  92:source\bsw/parserNew.c **** RC_t PARSER_addChar(Parser_t *const me, char data) {
 126              		.loc 1 92 0
 127              		.cfi_startproc
 128              		@ args = 0, pretend = 0, frame = 0
 129              		@ frame_needed = 0, uses_anonymous_args = 0
 130              		@ link register save eliminated.
 131              	.LVL10:
  93:source\bsw/parserNew.c ****     if (!me) return RC_ERROR;
ARM GAS  C:\Users\abhim\AppData\Local\Temp\ccXFvHnj.s 			page 5


 132              		.loc 1 93 0
 133 0000 0346     		mov	r3, r0
 134 0002 68B1     		cbz	r0, .L13
  94:source\bsw/parserNew.c ****     
  95:source\bsw/parserNew.c ****     // Check if there's space in the buffer
  96:source\bsw/parserNew.c ****     if (me->nextFreePos >= PARSERSTRINGSIZE - 1) {
 135              		.loc 1 96 0
 136 0004 B0F8D428 		ldrh	r2, [r0, #2260]
 137 0008 C62A     		cmp	r2, #198
 138 000a 0CD8     		bhi	.L14
  97:source\bsw/parserNew.c ****         return RC_ERROR_BUFFER_FULL;
  98:source\bsw/parserNew.c ****     }
  99:source\bsw/parserNew.c ****     
 100:source\bsw/parserNew.c ****     // Add character to buffer
 101:source\bsw/parserNew.c ****     me->content[me->nextFreePos++] = data;
 139              		.loc 1 101 0
 140 000c 501C     		adds	r0, r2, #1
 141              	.LVL11:
 142 000e 80B2     		uxth	r0, r0
 143 0010 A3F8D408 		strh	r0, [r3, #2260]	@ movhi
 144 0014 1A44     		add	r2, r2, r3
 145 0016 1173     		strb	r1, [r2, #12]
 102:source\bsw/parserNew.c ****     me->content[me->nextFreePos] = '\0';  // Ensure null termination
 146              		.loc 1 102 0
 147 0018 0344     		add	r3, r3, r0
 148              	.LVL12:
 149 001a 0020     		movs	r0, #0
 150 001c 1873     		strb	r0, [r3, #12]
 103:source\bsw/parserNew.c ****     
 104:source\bsw/parserNew.c ****     return RC_SUCCESS;
 151              		.loc 1 104 0
 152 001e 7047     		bx	lr
 153              	.LVL13:
 154              	.L13:
  93:source\bsw/parserNew.c ****     
 155              		.loc 1 93 0
 156 0020 4FF0FF30 		mov	r0, #-1
 157              	.LVL14:
 158 0024 7047     		bx	lr
 159              	.LVL15:
 160              	.L14:
  97:source\bsw/parserNew.c ****     }
 161              		.loc 1 97 0
 162 0026 6FF00700 		mvn	r0, #7
 163              	.LVL16:
 105:source\bsw/parserNew.c **** }
 164              		.loc 1 105 0
 165 002a 7047     		bx	lr
 166              		.cfi_endproc
 167              	.LFE113:
 168              		.size	PARSER_addChar, .-PARSER_addChar
 169              		.section	.text.PARSER_addEndl,"ax",%progbits
 170              		.align	2
 171              		.global	PARSER_addEndl
 172              		.thumb
 173              		.thumb_func
 174              		.type	PARSER_addEndl, %function
ARM GAS  C:\Users\abhim\AppData\Local\Temp\ccXFvHnj.s 			page 6


 175              	PARSER_addEndl:
 176              	.LFB114:
 106:source\bsw/parserNew.c **** 
 107:source\bsw/parserNew.c **** RC_t PARSER_addEndl(Parser_t *const me) {
 177              		.loc 1 107 0
 178              		.cfi_startproc
 179              		@ args = 0, pretend = 0, frame = 0
 180              		@ frame_needed = 0, uses_anonymous_args = 0
 181              		@ link register save eliminated.
 182              	.LVL17:
 108:source\bsw/parserNew.c ****     if (!me) return RC_ERROR;
 183              		.loc 1 108 0
 184 0000 0346     		mov	r3, r0
 185 0002 70B1     		cbz	r0, .L17
 109:source\bsw/parserNew.c ****     
 110:source\bsw/parserNew.c ****     // Check if there's space in the buffer
 111:source\bsw/parserNew.c ****     if (me->nextFreePos >= PARSERSTRINGSIZE - 1) {
 186              		.loc 1 111 0
 187 0004 B0F8D428 		ldrh	r2, [r0, #2260]
 188 0008 C62A     		cmp	r2, #198
 189 000a 0DD8     		bhi	.L18
 112:source\bsw/parserNew.c ****         return RC_ERROR_BUFFER_FULL;
 113:source\bsw/parserNew.c ****     }
 114:source\bsw/parserNew.c ****     
 115:source\bsw/parserNew.c ****     // Add newline character
 116:source\bsw/parserNew.c ****     me->content[me->nextFreePos++] = '\n';
 190              		.loc 1 116 0
 191 000c 501C     		adds	r0, r2, #1
 192              	.LVL18:
 193 000e 80B2     		uxth	r0, r0
 194 0010 A3F8D408 		strh	r0, [r3, #2260]	@ movhi
 195 0014 1A44     		add	r2, r2, r3
 196 0016 0A21     		movs	r1, #10
 197 0018 1173     		strb	r1, [r2, #12]
 117:source\bsw/parserNew.c ****     me->content[me->nextFreePos] = '\0';  // Ensure null termination
 198              		.loc 1 117 0
 199 001a 0344     		add	r3, r3, r0
 200              	.LVL19:
 201 001c 0020     		movs	r0, #0
 202 001e 1873     		strb	r0, [r3, #12]
 118:source\bsw/parserNew.c ****     
 119:source\bsw/parserNew.c ****     return RC_SUCCESS;
 203              		.loc 1 119 0
 204 0020 7047     		bx	lr
 205              	.LVL20:
 206              	.L17:
 108:source\bsw/parserNew.c ****     
 207              		.loc 1 108 0
 208 0022 4FF0FF30 		mov	r0, #-1
 209              	.LVL21:
 210 0026 7047     		bx	lr
 211              	.LVL22:
 212              	.L18:
 112:source\bsw/parserNew.c ****     }
 213              		.loc 1 112 0
 214 0028 6FF00700 		mvn	r0, #7
 215              	.LVL23:
ARM GAS  C:\Users\abhim\AppData\Local\Temp\ccXFvHnj.s 			page 7


 120:source\bsw/parserNew.c **** }
 216              		.loc 1 120 0
 217 002c 7047     		bx	lr
 218              		.cfi_endproc
 219              	.LFE114:
 220              		.size	PARSER_addEndl, .-PARSER_addEndl
 221 002e 00BF     		.section	.text.PARSER_parse,"ax",%progbits
 222              		.align	2
 223              		.global	PARSER_parse
 224              		.thumb
 225              		.thumb_func
 226              		.type	PARSER_parse, %function
 227              	PARSER_parse:
 228              	.LFB115:
 121:source\bsw/parserNew.c **** 
 122:source\bsw/parserNew.c **** RC_t PARSER_parse(Parser_t *const me) {
 229              		.loc 1 122 0
 230              		.cfi_startproc
 231              		@ args = 0, pretend = 0, frame = 0
 232              		@ frame_needed = 0, uses_anonymous_args = 0
 233              	.LVL24:
 123:source\bsw/parserNew.c ****     if (!me) return RC_ERROR;
 234              		.loc 1 123 0
 235 0000 D0B1     		cbz	r0, .L21
 122:source\bsw/parserNew.c ****     if (!me) return RC_ERROR;
 236              		.loc 1 122 0
 237 0002 30B5     		push	{r4, r5, lr}
 238              		.cfi_def_cfa_offset 12
 239              		.cfi_offset 4, -12
 240              		.cfi_offset 5, -8
 241              		.cfi_offset 14, -4
 242 0004 83B0     		sub	sp, sp, #12
 243              		.cfi_def_cfa_offset 24
 244 0006 0446     		mov	r4, r0
 124:source\bsw/parserNew.c ****     
 125:source\bsw/parserNew.c ****     // Reset the parser
 126:source\bsw/parserNew.c ****     jsmn_init(&me->parser);
 245              		.loc 1 126 0
 246 0008 FFF7FEFF 		bl	jsmn_init
 247              	.LVL25:
 127:source\bsw/parserNew.c ****     
 128:source\bsw/parserNew.c ****     // Parse the JSON string
 129:source\bsw/parserNew.c ****     int result = jsmn_parse(&me->parser, 
 130:source\bsw/parserNew.c ****                            me->content, 
 131:source\bsw/parserNew.c ****                            strlen(me->content), 
 248              		.loc 1 131 0
 249 000c 04F10C05 		add	r5, r4, #12
 129:source\bsw/parserNew.c ****                            me->content, 
 250              		.loc 1 129 0
 251 0010 2846     		mov	r0, r5
 252 0012 FFF7FEFF 		bl	strlen
 253              	.LVL26:
 254 0016 8023     		movs	r3, #128
 255 0018 0093     		str	r3, [sp]
 256 001a 04F1D403 		add	r3, r4, #212
 257 001e 0246     		mov	r2, r0
 258 0020 2946     		mov	r1, r5
ARM GAS  C:\Users\abhim\AppData\Local\Temp\ccXFvHnj.s 			page 8


 259 0022 2046     		mov	r0, r4
 260 0024 FFF7FEFF 		bl	jsmn_parse
 261              	.LVL27:
 132:source\bsw/parserNew.c ****                            me->token, 
 133:source\bsw/parserNew.c ****                            PARSERMAXTOKEN);
 134:source\bsw/parserNew.c ****     
 135:source\bsw/parserNew.c ****     // Reset token iterator
 136:source\bsw/parserNew.c ****     me->nextToken = 0;
 262              		.loc 1 136 0
 263 0028 0023     		movs	r3, #0
 264 002a A4F8D638 		strh	r3, [r4, #2262]	@ movhi
 137:source\bsw/parserNew.c ****     
 138:source\bsw/parserNew.c ****     // Check parsing result
 139:source\bsw/parserNew.c ****     if (result < 0) {
 265              		.loc 1 139 0
 266 002e 9842     		cmp	r0, r3
 267 0030 05DA     		bge	.L22
 140:source\bsw/parserNew.c ****         return RC_ERROR_PARSER;
 268              		.loc 1 140 0
 269 0032 6FF01C00 		mvn	r0, #28
 270              	.LVL28:
 271 0036 03E0     		b	.L20
 272              	.LVL29:
 273              	.L21:
 274              		.cfi_def_cfa_offset 0
 275              		.cfi_restore 4
 276              		.cfi_restore 5
 277              		.cfi_restore 14
 123:source\bsw/parserNew.c ****     
 278              		.loc 1 123 0
 279 0038 4FF0FF30 		mov	r0, #-1
 280              	.LVL30:
 141:source\bsw/parserNew.c ****     }
 142:source\bsw/parserNew.c ****     
 143:source\bsw/parserNew.c ****     return RC_SUCCESS;
 144:source\bsw/parserNew.c **** }
 281              		.loc 1 144 0
 282 003c 7047     		bx	lr
 283              	.LVL31:
 284              	.L22:
 285              		.cfi_def_cfa_offset 24
 286              		.cfi_offset 4, -12
 287              		.cfi_offset 5, -8
 288              		.cfi_offset 14, -4
 143:source\bsw/parserNew.c **** }
 289              		.loc 1 143 0
 290 003e 0020     		movs	r0, #0
 291              	.LVL32:
 292              	.L20:
 293              		.loc 1 144 0
 294 0040 03B0     		add	sp, sp, #12
 295              		.cfi_def_cfa_offset 12
 296              		@ sp needed
 297 0042 30BD     		pop	{r4, r5, pc}
 298              		.cfi_endproc
 299              	.LFE115:
 300              		.size	PARSER_parse, .-PARSER_parse
ARM GAS  C:\Users\abhim\AppData\Local\Temp\ccXFvHnj.s 			page 9


 301              		.section	.text.PARSER_getNextToken,"ax",%progbits
 302              		.align	2
 303              		.global	PARSER_getNextToken
 304              		.thumb
 305              		.thumb_func
 306              		.type	PARSER_getNextToken, %function
 307              	PARSER_getNextToken:
 308              	.LFB116:
 145:source\bsw/parserNew.c **** 
 146:source\bsw/parserNew.c **** RC_t PARSER_getNextToken(Parser_t *const me, jsmntok_t *const token) {
 309              		.loc 1 146 0
 310              		.cfi_startproc
 311              		@ args = 0, pretend = 0, frame = 0
 312              		@ frame_needed = 0, uses_anonymous_args = 0
 313              		@ link register save eliminated.
 314              	.LVL33:
 147:source\bsw/parserNew.c ****     if (!me || !token) return RC_ERROR;
 315              		.loc 1 147 0
 316 0000 C0B1     		cbz	r0, .L26
 146:source\bsw/parserNew.c ****     if (!me || !token) return RC_ERROR;
 317              		.loc 1 146 0 discriminator 2
 318 0002 10B4     		push	{r4}
 319              		.cfi_def_cfa_offset 4
 320              		.cfi_offset 4, -4
 321 0004 0C46     		mov	r4, r1
 322              		.loc 1 147 0 discriminator 2
 323 0006 C1B1     		cbz	r1, .L27
 148:source\bsw/parserNew.c ****     
 149:source\bsw/parserNew.c ****     // Check if we've reached the end of tokens
 150:source\bsw/parserNew.c ****     if (me->nextToken >= PARSERMAXTOKEN) {
 324              		.loc 1 150 0
 325 0008 B0F8D628 		ldrh	r2, [r0, #2262]
 326 000c 7F2A     		cmp	r2, #127
 327 000e 17D8     		bhi	.L28
 151:source\bsw/parserNew.c ****         return RC_ERROR_TOKEN_END;
 152:source\bsw/parserNew.c ****     }
 153:source\bsw/parserNew.c ****     
 154:source\bsw/parserNew.c ****     // Check if the current token is valid
 155:source\bsw/parserNew.c ****     if (me->token[me->nextToken].type == JSMN_UNDEFINED) {
 328              		.loc 1 155 0
 329 0010 02F10D01 		add	r1, r2, #13
 330              	.LVL34:
 331 0014 00EB0111 		add	r1, r0, r1, lsl #4
 332 0018 0979     		ldrb	r1, [r1, #4]	@ zero_extendqisi2
 333 001a A1B1     		cbz	r1, .L29
 156:source\bsw/parserNew.c ****         return RC_ERROR_TOKEN_INVALID;
 157:source\bsw/parserNew.c ****     }
 158:source\bsw/parserNew.c ****     
 159:source\bsw/parserNew.c ****     // Copy token data
 160:source\bsw/parserNew.c ****     *token = me->token[me->nextToken++];
 334              		.loc 1 160 0
 335 001c 511C     		adds	r1, r2, #1
 336 001e A0F8D618 		strh	r1, [r0, #2262]	@ movhi
 337 0022 0D32     		adds	r2, r2, #13
 338 0024 00EB0213 		add	r3, r0, r2, lsl #4
 339 0028 0433     		adds	r3, r3, #4
 340 002a 0FCB     		ldmia	r3, {r0, r1, r2, r3}
ARM GAS  C:\Users\abhim\AppData\Local\Temp\ccXFvHnj.s 			page 10


 341              	.LVL35:
 342 002c 84E80F00 		stmia	r4, {r0, r1, r2, r3}
 161:source\bsw/parserNew.c ****     
 162:source\bsw/parserNew.c ****     return RC_SUCCESS;
 343              		.loc 1 162 0
 344 0030 0020     		movs	r0, #0
 345 0032 0AE0     		b	.L25
 346              	.LVL36:
 347              	.L26:
 348              		.cfi_def_cfa_offset 0
 349              		.cfi_restore 4
 147:source\bsw/parserNew.c ****     
 350              		.loc 1 147 0
 351 0034 4FF0FF30 		mov	r0, #-1
 352              	.LVL37:
 163:source\bsw/parserNew.c **** }
 353              		.loc 1 163 0
 354 0038 7047     		bx	lr
 355              	.LVL38:
 356              	.L27:
 357              		.cfi_def_cfa_offset 4
 358              		.cfi_offset 4, -4
 147:source\bsw/parserNew.c ****     
 359              		.loc 1 147 0
 360 003a 4FF0FF30 		mov	r0, #-1
 361              	.LVL39:
 362 003e 04E0     		b	.L25
 363              	.LVL40:
 364              	.L28:
 151:source\bsw/parserNew.c ****     }
 365              		.loc 1 151 0
 366 0040 6FF01A00 		mvn	r0, #26
 367              	.LVL41:
 368 0044 01E0     		b	.L25
 369              	.LVL42:
 370              	.L29:
 156:source\bsw/parserNew.c ****     }
 371              		.loc 1 156 0
 372 0046 6FF01B00 		mvn	r0, #27
 373              	.LVL43:
 374              	.L25:
 375              		.loc 1 163 0
 376 004a 10BC     		pop	{r4}
 377              		.cfi_restore 4
 378              		.cfi_def_cfa_offset 0
 379              	.LVL44:
 380 004c 7047     		bx	lr
 381              		.cfi_endproc
 382              	.LFE116:
 383              		.size	PARSER_getNextToken, .-PARSER_getNextToken
 384 004e 00BF     		.section	.text.PARSER_resetNextToken,"ax",%progbits
 385              		.align	2
 386              		.global	PARSER_resetNextToken
 387              		.thumb
 388              		.thumb_func
 389              		.type	PARSER_resetNextToken, %function
 390              	PARSER_resetNextToken:
ARM GAS  C:\Users\abhim\AppData\Local\Temp\ccXFvHnj.s 			page 11


 391              	.LFB117:
 164:source\bsw/parserNew.c **** 
 165:source\bsw/parserNew.c **** RC_t PARSER_resetNextToken(Parser_t *const me) {
 392              		.loc 1 165 0
 393              		.cfi_startproc
 394              		@ args = 0, pretend = 0, frame = 0
 395              		@ frame_needed = 0, uses_anonymous_args = 0
 396              		@ link register save eliminated.
 397              	.LVL45:
 166:source\bsw/parserNew.c ****     if (!me) return RC_ERROR;
 398              		.loc 1 166 0
 399 0000 0346     		mov	r3, r0
 400 0002 18B1     		cbz	r0, .L33
 167:source\bsw/parserNew.c ****     
 168:source\bsw/parserNew.c ****     me->nextToken = 0;
 401              		.loc 1 168 0
 402 0004 0020     		movs	r0, #0
 403              	.LVL46:
 404 0006 A3F8D608 		strh	r0, [r3, #2262]	@ movhi
 169:source\bsw/parserNew.c ****     return RC_SUCCESS;
 405              		.loc 1 169 0
 406 000a 7047     		bx	lr
 407              	.LVL47:
 408              	.L33:
 166:source\bsw/parserNew.c ****     if (!me) return RC_ERROR;
 409              		.loc 1 166 0
 410 000c 4FF0FF30 		mov	r0, #-1
 411              	.LVL48:
 170:source\bsw/parserNew.c **** }
 412              		.loc 1 170 0
 413 0010 7047     		bx	lr
 414              		.cfi_endproc
 415              	.LFE117:
 416              		.size	PARSER_resetNextToken, .-PARSER_resetNextToken
 417 0012 00BF     		.section	.text.PARSER_dbg_printContent,"ax",%progbits
 418              		.align	2
 419              		.global	PARSER_dbg_printContent
 420              		.thumb
 421              		.thumb_func
 422              		.type	PARSER_dbg_printContent, %function
 423              	PARSER_dbg_printContent:
 424              	.LFB118:
 171:source\bsw/parserNew.c **** 
 172:source\bsw/parserNew.c **** RC_t PARSER_dbg_printContent(Parser_t *const me) {
 425              		.loc 1 172 0
 426              		.cfi_startproc
 427              		@ args = 0, pretend = 0, frame = 0
 428              		@ frame_needed = 0, uses_anonymous_args = 0
 429              	.LVL49:
 173:source\bsw/parserNew.c ****     if (!me) return RC_ERROR;
 430              		.loc 1 173 0
 431 0000 38B1     		cbz	r0, .L36
 172:source\bsw/parserNew.c ****     if (!me) return RC_ERROR;
 432              		.loc 1 172 0
 433 0002 08B5     		push	{r3, lr}
 434              		.cfi_def_cfa_offset 8
 435              		.cfi_offset 3, -8
ARM GAS  C:\Users\abhim\AppData\Local\Temp\ccXFvHnj.s 			page 12


 436              		.cfi_offset 14, -4
 437 0004 0146     		mov	r1, r0
 174:source\bsw/parserNew.c ****     
 175:source\bsw/parserNew.c ****     printf("Parser Content:\n%s\n", me->content);
 438              		.loc 1 175 0
 439 0006 0C31     		adds	r1, r1, #12
 440 0008 0348     		ldr	r0, .L39
 441              	.LVL50:
 442 000a FFF7FEFF 		bl	printf
 443              	.LVL51:
 176:source\bsw/parserNew.c ****     return RC_SUCCESS;
 444              		.loc 1 176 0
 445 000e 0020     		movs	r0, #0
 446 0010 08BD     		pop	{r3, pc}
 447              	.LVL52:
 448              	.L36:
 449              		.cfi_def_cfa_offset 0
 450              		.cfi_restore 3
 451              		.cfi_restore 14
 173:source\bsw/parserNew.c ****     
 452              		.loc 1 173 0
 453 0012 4FF0FF30 		mov	r0, #-1
 454              	.LVL53:
 455 0016 7047     		bx	lr
 456              	.L40:
 457              		.align	2
 458              	.L39:
 459 0018 00000000 		.word	.LC0
 460              		.cfi_endproc
 461              	.LFE118:
 462              		.size	PARSER_dbg_printContent, .-PARSER_dbg_printContent
 463              		.section	.text.PARSER_dbg_printToken,"ax",%progbits
 464              		.align	2
 465              		.global	PARSER_dbg_printToken
 466              		.thumb
 467              		.thumb_func
 468              		.type	PARSER_dbg_printToken, %function
 469              	PARSER_dbg_printToken:
 470              	.LFB119:
 177:source\bsw/parserNew.c **** }
 178:source\bsw/parserNew.c **** 
 179:source\bsw/parserNew.c **** RC_t PARSER_dbg_printToken(Parser_t *const me) {
 471              		.loc 1 179 0
 472              		.cfi_startproc
 473              		@ args = 0, pretend = 0, frame = 0
 474              		@ frame_needed = 0, uses_anonymous_args = 0
 475              	.LVL54:
 180:source\bsw/parserNew.c ****     if (!me) return RC_ERROR;
 476              		.loc 1 180 0
 477 0000 20B3     		cbz	r0, .L45
 179:source\bsw/parserNew.c ****     if (!me) return RC_ERROR;
 478              		.loc 1 179 0
 479 0002 30B5     		push	{r4, r5, lr}
 480              		.cfi_def_cfa_offset 12
 481              		.cfi_offset 4, -12
 482              		.cfi_offset 5, -8
 483              		.cfi_offset 14, -4
ARM GAS  C:\Users\abhim\AppData\Local\Temp\ccXFvHnj.s 			page 13


 484 0004 83B0     		sub	sp, sp, #12
 485              		.cfi_def_cfa_offset 24
 486 0006 0546     		mov	r5, r0
 181:source\bsw/parserNew.c ****     
 182:source\bsw/parserNew.c ****     printf("Parser Tokens:\n");
 487              		.loc 1 182 0
 488 0008 1348     		ldr	r0, .L48
 489              	.LVL55:
 490 000a FFF7FEFF 		bl	puts
 491              	.LVL56:
 492              	.LBB2:
 183:source\bsw/parserNew.c ****     for (uint16_t i = 0; i < PARSERMAXTOKEN; i++) {
 493              		.loc 1 183 0
 494 000e 0024     		movs	r4, #0
 495 0010 18E0     		b	.L43
 496              	.LVL57:
 497              	.L44:
 184:source\bsw/parserNew.c ****         if (me->token[i].type == JSMN_UNDEFINED) break;
 498              		.loc 1 184 0
 499 0012 04F10D03 		add	r3, r4, #13
 500 0016 05EB0313 		add	r3, r5, r3, lsl #4
 501 001a 1A79     		ldrb	r2, [r3, #4]	@ zero_extendqisi2
 502 001c CAB1     		cbz	r2, .L46
 185:source\bsw/parserNew.c ****         
 186:source\bsw/parserNew.c ****         printf("Token %d: type=%d, start=%d, end=%d, size=%d\n",
 503              		.loc 1 186 0 discriminator 2
 504 001e 04F10D03 		add	r3, r4, #13
 505 0022 05EB0313 		add	r3, r5, r3, lsl #4
 506 0026 9B68     		ldr	r3, [r3, #8]
 507 0028 05EB0411 		add	r1, r5, r4, lsl #4
 508 002c D1F8E000 		ldr	r0, [r1, #224]
 509 0030 0190     		str	r0, [sp, #4]
 510 0032 D1F8DC10 		ldr	r1, [r1, #220]
 511 0036 0091     		str	r1, [sp]
 512 0038 2146     		mov	r1, r4
 513 003a 0848     		ldr	r0, .L48+4
 514 003c FFF7FEFF 		bl	printf
 515              	.LVL58:
 183:source\bsw/parserNew.c ****         if (me->token[i].type == JSMN_UNDEFINED) break;
 516              		.loc 1 183 0 discriminator 2
 517 0040 0134     		adds	r4, r4, #1
 518              	.LVL59:
 519 0042 A4B2     		uxth	r4, r4
 520              	.LVL60:
 521              	.L43:
 183:source\bsw/parserNew.c ****         if (me->token[i].type == JSMN_UNDEFINED) break;
 522              		.loc 1 183 0 is_stmt 0 discriminator 1
 523 0044 7F2C     		cmp	r4, #127
 524 0046 E4D9     		bls	.L44
 525              	.LBE2:
 187:source\bsw/parserNew.c ****                i,
 188:source\bsw/parserNew.c ****                me->token[i].type,
 189:source\bsw/parserNew.c ****                me->token[i].start,
 190:source\bsw/parserNew.c ****                me->token[i].end,
 191:source\bsw/parserNew.c ****                me->token[i].size);
 192:source\bsw/parserNew.c ****     }
 193:source\bsw/parserNew.c ****     
ARM GAS  C:\Users\abhim\AppData\Local\Temp\ccXFvHnj.s 			page 14


 194:source\bsw/parserNew.c ****     return RC_SUCCESS;
 526              		.loc 1 194 0 is_stmt 1
 527 0048 0020     		movs	r0, #0
 528              	.LBB3:
 529 004a 03E0     		b	.L42
 530              	.LVL61:
 531              	.L45:
 532              		.cfi_def_cfa_offset 0
 533              		.cfi_restore 4
 534              		.cfi_restore 5
 535              		.cfi_restore 14
 536              	.LBE3:
 180:source\bsw/parserNew.c ****     
 537              		.loc 1 180 0
 538 004c 4FF0FF30 		mov	r0, #-1
 539              	.LVL62:
 195:source\bsw/parserNew.c **** }...
 540              		.loc 1 195 0
 541 0050 7047     		bx	lr
 542              	.LVL63:
 543              	.L46:
 544              		.cfi_def_cfa_offset 24
 545              		.cfi_offset 4, -12
 546              		.cfi_offset 5, -8
 547              		.cfi_offset 14, -4
 194:source\bsw/parserNew.c ****     return RC_SUCCESS;
 548              		.loc 1 194 0
 549 0052 0020     		movs	r0, #0
 550              	.L42:
 551              		.loc 1 195 0
 552 0054 03B0     		add	sp, sp, #12
 553              		.cfi_def_cfa_offset 12
 554              		@ sp needed
 555 0056 30BD     		pop	{r4, r5, pc}
 556              	.LVL64:
 557              	.L49:
 558              		.align	2
 559              	.L48:
 560 0058 14000000 		.word	.LC1
 561 005c 24000000 		.word	.LC2
 562              		.cfi_endproc
 563              	.LFE119:
 564              		.size	PARSER_dbg_printToken, .-PARSER_dbg_printToken
 565              		.section	.rodata.str1.4,"aMS",%progbits,1
 566              		.align	2
 567              	.LC0:
 568 0000 50617273 		.ascii	"Parser Content:\012%s\012\000"
 568      65722043 
 568      6F6E7465 
 568      6E743A0A 
 568      25730A00 
 569              	.LC1:
 570 0014 50617273 		.ascii	"Parser Tokens:\000"
 570      65722054 
 570      6F6B656E 
 570      733A00
 571 0023 00       		.space	1
ARM GAS  C:\Users\abhim\AppData\Local\Temp\ccXFvHnj.s 			page 15


 572              	.LC2:
 573 0024 546F6B65 		.ascii	"Token %d: type=%d, start=%d, end=%d, size=%d\012\000"
 573      6E202564 
 573      3A207479 
 573      70653D25 
 573      642C2073 
 574              		.text
 575              	.Letext0:
 576              		.file 2 "c:\\program files (x86)\\cypress\\psoc creator\\4.4\\psoc creator\\import\\gnu\\arm\\5.4.
 577              		.file 3 "c:\\program files (x86)\\cypress\\psoc creator\\4.4\\psoc creator\\import\\gnu\\arm\\5.4.
 578              		.file 4 "Generated_Source\\PSoC5/ErikaOS_common_ee_types.inc"
 579              		.file 5 "Generated_Source\\PSoC5/ErikaOS_cortex_mx_ee_cpu.inc"
 580              		.file 6 "source\\bsw\\global.h"
 581              		.file 7 "./jsmn.h"
 582              		.file 8 "source\\bsw\\parserNew.h"
 583              		.file 9 "Generated_Source\\PSoC5/ErikaOS_ee_oo_intfunc.inc"
 584              		.file 10 "Generated_Source\\PSoC5/ErikaOS_cortex_mx_ee_context.inc"
 585              		.file 11 "Generated_Source\\PSoC5/ErikaOS_common_ee_primitives.inc"
 586              		.file 12 "Generated_Source\\PSoC5/core_cm3.h"
 587              		.file 13 "c:\\program files (x86)\\cypress\\psoc creator\\4.4\\psoc creator\\import\\gnu\\arm\\5.4
 588              		.file 14 "c:\\program files (x86)\\cypress\\psoc creator\\4.4\\psoc creator\\import\\gnu\\arm\\5.4
 589              		.file 15 "<built-in>"