ARM GAS  C:\Users\abhim\AppData\Local\Temp\cc8lg0jk.s 			page 1


   1              		.syntax unified
   2              		.cpu cortex-m3
   3              		.fpu softvfp
   4              		.eabi_attribute 20, 1
   5              		.eabi_attribute 21, 1
   6              		.eabi_attribute 23, 3
   7              		.eabi_attribute 24, 1
   8              		.eabi_attribute 25, 1
   9              		.eabi_attribute 26, 1
  10              		.eabi_attribute 30, 1
  11              		.eabi_attribute 34, 1
  12              		.eabi_attribute 18, 4
  13              		.thumb
  14              		.syntax unified
  15              		.file	"parser.c"
  16              		.text
  17              	.Ltext0:
  18              		.cfi_sections	.debug_frame
  19              		.section	.text.get_token_type_str,"ax",%progbits
  20              		.align	2
  21              		.thumb
  22              		.thumb_func
  23              		.type	get_token_type_str, %function
  24              	get_token_type_str:
  25              	.LFB111:
  26              		.file 1 "source\\bsw\\parser.c"
   1:source\bsw/parser.c **** /**
   2:source\bsw/parser.c **** * \file <filename>
   3:source\bsw/parser.c **** * \author <author-name>
   4:source\bsw/parser.c **** * \date <date>
   5:source\bsw/parser.c **** *
   6:source\bsw/parser.c **** * \brief <Symbolic File name>
   7:source\bsw/parser.c **** *
   8:source\bsw/parser.c **** * \copyright Copyright ©2016
   9:source\bsw/parser.c **** * Department of electrical engineering and information technology, Hochschule Darmstadt - Universit
  10:source\bsw/parser.c **** * Permission to use, copy, modify, and distribute this software and its documentation for education
  11:source\bsw/parser.c **** * (unless permitted by h_da) and official h_da projects, is hereby granted for enrolled students of
  12:source\bsw/parser.c **** * this paragraph and the following paragraph appear in all copies, modifications, and distributions
  13:source\bsw/parser.c **** * Contact Prof.Dr.-Ing. Peter Fromm, peter.fromm@h-da.de, Birkenweg 8 64295 Darmstadt - GERMANY for
  14:source\bsw/parser.c **** *
  15:source\bsw/parser.c **** * \warning This software is a PROTOTYPE version and is not designed or intended for use in producti
  16:source\bsw/parser.c **** * The user represents and warrants that it will NOT use or redistribute the Software for such purpo
  17:source\bsw/parser.c **** * This prototype is for research purposes only. This software is provided "AS IS," without a warran
  18:source\bsw/parser.c **** */
  19:source\bsw/parser.c **** 
  20:source\bsw/parser.c **** /*****************************************************************************/
  21:source\bsw/parser.c **** /* Include files                                                             */
  22:source\bsw/parser.c **** /*****************************************************************************/
  23:source\bsw/parser.c **** 
  24:source\bsw/parser.c **** #include "parser.h"
  25:source\bsw/parser.c **** 
  26:source\bsw/parser.c **** #include <string.h>
  27:source\bsw/parser.c **** #include <stdio.h>
  28:source\bsw/parser.c **** #include <stdlib.h>
  29:source\bsw/parser.c **** 
  30:source\bsw/parser.c **** /*****************************************************************************/
  31:source\bsw/parser.c **** /* Local pre-processor symbols/macros ('#define')                            */
ARM GAS  C:\Users\abhim\AppData\Local\Temp\cc8lg0jk.s 			page 2


  32:source\bsw/parser.c **** /*****************************************************************************/
  33:source\bsw/parser.c **** 
  34:source\bsw/parser.c **** /*****************************************************************************/
  35:source\bsw/parser.c **** /* Global variable definitions (declared in header file with 'extern')       */
  36:source\bsw/parser.c **** /*****************************************************************************/
  37:source\bsw/parser.c **** 
  38:source\bsw/parser.c **** /*****************************************************************************/
  39:source\bsw/parser.c **** /* Local type definitions ('typedef')                                        */
  40:source\bsw/parser.c **** /*****************************************************************************/
  41:source\bsw/parser.c **** 
  42:source\bsw/parser.c **** /*****************************************************************************/
  43:source\bsw/parser.c **** /* Local variable definitions ('static')                                     */
  44:source\bsw/parser.c **** /*****************************************************************************/
  45:source\bsw/parser.c **** 
  46:source\bsw/parser.c **** 
  47:source\bsw/parser.c **** 
  48:source\bsw/parser.c **** /*****************************************************************************/
  49:source\bsw/parser.c **** /* Local function prototypes ('static')                                      */
  50:source\bsw/parser.c **** /*****************************************************************************/
  51:source\bsw/parser.c **** 
  52:source\bsw/parser.c **** 
  53:source\bsw/parser.c **** /*****************************************************************************/
  54:source\bsw/parser.c **** /* Function implementation - global ('extern') and local ('static')          */
  55:source\bsw/parser.c **** /*****************************************************************************/
  56:source\bsw/parser.c **** 
  57:source\bsw/parser.c **** /**
  58:source\bsw/parser.c ****  * <Description>
  59:source\bsw/parser.c ****  * \param <first para>
  60:source\bsw/parser.c ****  * \return <return value>
  61:source\bsw/parser.c ****  */
  62:source\bsw/parser.c **** //RC_t FILE_function(type para)
  63:source\bsw/parser.c **** #define MAX_TOKENS 256
  64:source\bsw/parser.c **** #define MAX_STRING_LENGTH 1024
  65:source\bsw/parser.c **** 
  66:source\bsw/parser.c **** // Helper function to get token type as string
  67:source\bsw/parser.c **** static const char* get_token_type_str(jsmntype_t type) {
  27              		.loc 1 67 0
  28              		.cfi_startproc
  29              		@ args = 0, pretend = 0, frame = 0
  30              		@ frame_needed = 0, uses_anonymous_args = 0
  31              		@ link register save eliminated.
  32              	.LVL0:
  68:source\bsw/parser.c ****     switch (type) {
  33              		.loc 1 68 0
  34 0000 0138     		subs	r0, r0, #1
  35              	.LVL1:
  36 0002 0728     		cmp	r0, #7
  37 0004 0BD8     		bhi	.L2
  38 0006 DFE800F0 		tbb	[pc, r0]
  39              	.L4:
  40 000a 04       		.byte	(.L3-.L4)/2
  41 000b 0C       		.byte	(.L8-.L4)/2
  42 000c 0A       		.byte	(.L2-.L4)/2
  43 000d 06       		.byte	(.L6-.L4)/2
  44 000e 0A       		.byte	(.L2-.L4)/2
  45 000f 0A       		.byte	(.L2-.L4)/2
  46 0010 0A       		.byte	(.L2-.L4)/2
ARM GAS  C:\Users\abhim\AppData\Local\Temp\cc8lg0jk.s 			page 3


  47 0011 08       		.byte	(.L7-.L4)/2
  48              		.p2align 1
  49              	.L3:
  69:source\bsw/parser.c ****         case JSMN_OBJECT: return "JSMN_OBJECT";
  50              		.loc 1 69 0
  51 0012 0548     		ldr	r0, .L9
  52 0014 7047     		bx	lr
  53              	.L6:
  70:source\bsw/parser.c ****         case JSMN_ARRAY: return "JSMN_ARRAY";
  71:source\bsw/parser.c ****         case JSMN_STRING: return "JSMN_STRING";
  54              		.loc 1 71 0
  55 0016 0548     		ldr	r0, .L9+4
  56 0018 7047     		bx	lr
  57              	.L7:
  72:source\bsw/parser.c ****         case JSMN_PRIMITIVE: return "JSMN_PRIMITIVE";
  58              		.loc 1 72 0
  59 001a 0548     		ldr	r0, .L9+8
  60 001c 7047     		bx	lr
  61              	.L2:
  73:source\bsw/parser.c ****         default: return "UNKNOWN";
  62              		.loc 1 73 0
  63 001e 0548     		ldr	r0, .L9+12
  64 0020 7047     		bx	lr
  65              	.L8:
  70:source\bsw/parser.c ****         case JSMN_ARRAY: return "JSMN_ARRAY";
  66              		.loc 1 70 0
  67 0022 0548     		ldr	r0, .L9+16
  74:source\bsw/parser.c ****     }
  75:source\bsw/parser.c **** }
  68              		.loc 1 75 0
  69 0024 7047     		bx	lr
  70              	.L10:
  71 0026 00BF     		.align	2
  72              	.L9:
  73 0028 00000000 		.word	.LC0
  74 002c 18000000 		.word	.LC2
  75 0030 24000000 		.word	.LC3
  76 0034 34000000 		.word	.LC4
  77 0038 0C000000 		.word	.LC1
  78              		.cfi_endproc
  79              	.LFE111:
  80              		.size	get_token_type_str, .-get_token_type_str
  81              		.section	.text.get_token_content,"ax",%progbits
  82              		.align	2
  83              		.thumb
  84              		.thumb_func
  85              		.type	get_token_content, %function
  86              	get_token_content:
  87              	.LFB112:
  76:source\bsw/parser.c **** 
  77:source\bsw/parser.c **** // Helper function to extract token content
  78:source\bsw/parser.c **** static char* get_token_content(const char* js, jsmntok_t* tok) {
  88              		.loc 1 78 0
  89              		.cfi_startproc
  90              		@ args = 0, pretend = 0, frame = 128
  91              		@ frame_needed = 0, uses_anonymous_args = 0
  92              	.LVL2:
ARM GAS  C:\Users\abhim\AppData\Local\Temp\cc8lg0jk.s 			page 4


  93 0000 F0B5     		push	{r4, r5, r6, r7, lr}
  94              		.cfi_def_cfa_offset 20
  95              		.cfi_offset 4, -20
  96              		.cfi_offset 5, -16
  97              		.cfi_offset 6, -12
  98              		.cfi_offset 7, -8
  99              		.cfi_offset 14, -4
 100 0002 A3B0     		sub	sp, sp, #140
 101              		.cfi_def_cfa_offset 160
  79:source\bsw/parser.c ****     if (!js || !tok) {
 102              		.loc 1 79 0
 103 0004 10B1     		cbz	r0, .L12
 104 0006 0C46     		mov	r4, r1
 105 0008 0746     		mov	r7, r0
 106              		.loc 1 79 0 is_stmt 0 discriminator 1
 107 000a 21B9     		cbnz	r1, .L13
 108              	.L12:
  80:source\bsw/parser.c ****         UART_LOG_PutString("Invalid parameters\n");
 109              		.loc 1 80 0 is_stmt 1
 110 000c 3048     		ldr	r0, .L21
 111              	.LVL3:
 112 000e FFF7FEFF 		bl	UART_LOG_PutString
 113              	.LVL4:
  81:source\bsw/parser.c ****         return NULL;
 114              		.loc 1 81 0
 115 0012 0020     		movs	r0, #0
 116 0014 5AE0     		b	.L14
 117              	.LVL5:
 118              	.L13:
  82:source\bsw/parser.c ****     }
  83:source\bsw/parser.c ****     
  84:source\bsw/parser.c ****     // Skip object and array tokens as we don't need their raw content
  85:source\bsw/parser.c ****     if (tok->type == JSMN_OBJECT || tok->type == JSMN_ARRAY) {
 119              		.loc 1 85 0
 120 0016 0B78     		ldrb	r3, [r1]	@ zero_extendqisi2
 121 0018 013B     		subs	r3, r3, #1
 122 001a DBB2     		uxtb	r3, r3
 123 001c 012B     		cmp	r3, #1
 124 001e 04D8     		bhi	.L15
  86:source\bsw/parser.c ****         UART_LOG_PutString("Skipping object/array token\n");
 125              		.loc 1 86 0
 126 0020 2C48     		ldr	r0, .L21+4
 127              	.LVL6:
 128 0022 FFF7FEFF 		bl	UART_LOG_PutString
 129              	.LVL7:
  87:source\bsw/parser.c ****         return NULL;
 130              		.loc 1 87 0
 131 0026 0020     		movs	r0, #0
 132 0028 50E0     		b	.L14
 133              	.LVL8:
 134              	.L15:
  88:source\bsw/parser.c ****     }
  89:source\bsw/parser.c ****     
  90:source\bsw/parser.c ****     char debug[128] = {0};
 135              		.loc 1 90 0
 136 002a 8022     		movs	r2, #128
 137 002c 0021     		movs	r1, #0
ARM GAS  C:\Users\abhim\AppData\Local\Temp\cc8lg0jk.s 			page 5


 138              	.LVL9:
 139 002e 02A8     		add	r0, sp, #8
 140              	.LVL10:
 141 0030 FFF7FEFF 		bl	memset
 142              	.LVL11:
  91:source\bsw/parser.c ****     
  92:source\bsw/parser.c ****     // Validate token boundaries
  93:source\bsw/parser.c ****     if (tok->start < 0 || tok->end < tok->start) {
 143              		.loc 1 93 0
 144 0034 6368     		ldr	r3, [r4, #4]
 145 0036 002B     		cmp	r3, #0
 146 0038 02DB     		blt	.L16
 147              		.loc 1 93 0 is_stmt 0 discriminator 1
 148 003a A268     		ldr	r2, [r4, #8]
 149 003c 9342     		cmp	r3, r2
 150 003e 04DD     		ble	.L17
 151              	.L16:
  94:source\bsw/parser.c ****         UART_LOG_PutString("Invalid token boundaries\n");
 152              		.loc 1 94 0 is_stmt 1
 153 0040 2548     		ldr	r0, .L21+8
 154 0042 FFF7FEFF 		bl	UART_LOG_PutString
 155              	.LVL12:
  95:source\bsw/parser.c ****         return NULL;
 156              		.loc 1 95 0
 157 0046 0020     		movs	r0, #0
 158 0048 40E0     		b	.L14
 159              	.L17:
  96:source\bsw/parser.c ****     }
  97:source\bsw/parser.c ****     
  98:source\bsw/parser.c ****     size_t length = tok->end - tok->start;
 160              		.loc 1 98 0
 161 004a D61A     		subs	r6, r2, r3
 162              	.LVL13:
  99:source\bsw/parser.c ****     if (length > 1024) {  // Add a reasonable maximum length
 163              		.loc 1 99 0
 164 004c B6F5806F 		cmp	r6, #1024
 165 0050 04D9     		bls	.L18
 100:source\bsw/parser.c ****         UART_LOG_PutString("Token too long\n");
 166              		.loc 1 100 0
 167 0052 2248     		ldr	r0, .L21+12
 168 0054 FFF7FEFF 		bl	UART_LOG_PutString
 169              	.LVL14:
 101:source\bsw/parser.c ****         return NULL;
 170              		.loc 1 101 0
 171 0058 0020     		movs	r0, #0
 172 005a 37E0     		b	.L14
 173              	.L18:
 102:source\bsw/parser.c ****     }
 103:source\bsw/parser.c ****     
 104:source\bsw/parser.c ****     snprintf(debug, sizeof(debug), "get_token_content called with start=%d, end=%d\n", 
 174              		.loc 1 104 0
 175 005c 0092     		str	r2, [sp]
 176 005e 204A     		ldr	r2, .L21+16
 177 0060 8021     		movs	r1, #128
 178 0062 02A8     		add	r0, sp, #8
 179 0064 FFF7FEFF 		bl	snprintf
 180              	.LVL15:
ARM GAS  C:\Users\abhim\AppData\Local\Temp\cc8lg0jk.s 			page 6


 105:source\bsw/parser.c ****              tok->start, tok->end);
 106:source\bsw/parser.c ****     UART_LOG_PutString(debug);
 181              		.loc 1 106 0
 182 0068 02A8     		add	r0, sp, #8
 183 006a FFF7FEFF 		bl	UART_LOG_PutString
 184              	.LVL16:
 107:source\bsw/parser.c ****     
 108:source\bsw/parser.c ****     snprintf(debug, sizeof(debug), "JSON string at position: '%c'\n", js[tok->start]);
 185              		.loc 1 108 0
 186 006e 6368     		ldr	r3, [r4, #4]
 187 0070 FB5C     		ldrb	r3, [r7, r3]	@ zero_extendqisi2
 188 0072 1C4A     		ldr	r2, .L21+20
 189 0074 8021     		movs	r1, #128
 190 0076 02A8     		add	r0, sp, #8
 191 0078 FFF7FEFF 		bl	snprintf
 192              	.LVL17:
 109:source\bsw/parser.c ****     UART_LOG_PutString(debug);
 193              		.loc 1 109 0
 194 007c 02A8     		add	r0, sp, #8
 195 007e FFF7FEFF 		bl	UART_LOG_PutString
 196              	.LVL18:
 110:source\bsw/parser.c ****     
 111:source\bsw/parser.c ****     snprintf(debug, sizeof(debug), "Attempting to allocate %zu bytes\n", length + 1);
 197              		.loc 1 111 0
 198 0082 751C     		adds	r5, r6, #1
 199 0084 2B46     		mov	r3, r5
 200 0086 184A     		ldr	r2, .L21+24
 201 0088 8021     		movs	r1, #128
 202 008a 02A8     		add	r0, sp, #8
 203 008c FFF7FEFF 		bl	snprintf
 204              	.LVL19:
 112:source\bsw/parser.c ****     UART_LOG_PutString(debug);
 205              		.loc 1 112 0
 206 0090 02A8     		add	r0, sp, #8
 207 0092 FFF7FEFF 		bl	UART_LOG_PutString
 208              	.LVL20:
 113:source\bsw/parser.c ****     
 114:source\bsw/parser.c ****     char* str = malloc(length + 1);
 209              		.loc 1 114 0
 210 0096 2846     		mov	r0, r5
 211 0098 FFF7FEFF 		bl	malloc
 212              	.LVL21:
 115:source\bsw/parser.c ****     if (!str) {
 213              		.loc 1 115 0
 214 009c 0546     		mov	r5, r0
 215 009e 20B9     		cbnz	r0, .L19
 116:source\bsw/parser.c ****         UART_LOG_PutString("malloc failed\n");
 216              		.loc 1 116 0
 217 00a0 1248     		ldr	r0, .L21+28
 218              	.LVL22:
 219 00a2 FFF7FEFF 		bl	UART_LOG_PutString
 220              	.LVL23:
 117:source\bsw/parser.c ****         return NULL;
 221              		.loc 1 117 0
 222 00a6 0020     		movs	r0, #0
 223 00a8 10E0     		b	.L14
 224              	.LVL24:
ARM GAS  C:\Users\abhim\AppData\Local\Temp\cc8lg0jk.s 			page 7


 225              	.L19:
 118:source\bsw/parser.c ****     }
 119:source\bsw/parser.c ****     
 120:source\bsw/parser.c ****     memcpy(str, js + tok->start, length);
 226              		.loc 1 120 0
 227 00aa 6168     		ldr	r1, [r4, #4]
 228 00ac 3246     		mov	r2, r6
 229 00ae 3944     		add	r1, r1, r7
 230 00b0 FFF7FEFF 		bl	memcpy
 231              	.LVL25:
 121:source\bsw/parser.c ****     str[length] = '\0';
 232              		.loc 1 121 0
 233 00b4 0023     		movs	r3, #0
 234 00b6 AB55     		strb	r3, [r5, r6]
 122:source\bsw/parser.c ****     
 123:source\bsw/parser.c ****     snprintf(debug, sizeof(debug), "Successfully extracted content: '%s'\n", str);
 235              		.loc 1 123 0
 236 00b8 2B46     		mov	r3, r5
 237 00ba 0D4A     		ldr	r2, .L21+32
 238 00bc 8021     		movs	r1, #128
 239 00be 02A8     		add	r0, sp, #8
 240 00c0 FFF7FEFF 		bl	snprintf
 241              	.LVL26:
 124:source\bsw/parser.c ****     UART_LOG_PutString(debug);
 242              		.loc 1 124 0
 243 00c4 02A8     		add	r0, sp, #8
 244 00c6 FFF7FEFF 		bl	UART_LOG_PutString
 245              	.LVL27:
 125:source\bsw/parser.c ****     
 126:source\bsw/parser.c ****     return str;
 246              		.loc 1 126 0
 247 00ca 2846     		mov	r0, r5
 248              	.LVL28:
 249              	.L14:
 127:source\bsw/parser.c **** }
 250              		.loc 1 127 0
 251 00cc 23B0     		add	sp, sp, #140
 252              		.cfi_def_cfa_offset 20
 253              		@ sp needed
 254 00ce F0BD     		pop	{r4, r5, r6, r7, pc}
 255              	.L22:
 256              		.align	2
 257              	.L21:
 258 00d0 3C000000 		.word	.LC5
 259 00d4 50000000 		.word	.LC6
 260 00d8 70000000 		.word	.LC7
 261 00dc 8C000000 		.word	.LC8
 262 00e0 9C000000 		.word	.LC9
 263 00e4 CC000000 		.word	.LC10
 264 00e8 EC000000 		.word	.LC11
 265 00ec 10010000 		.word	.LC12
 266 00f0 20010000 		.word	.LC13
 267              		.cfi_endproc
 268              	.LFE112:
 269              		.size	get_token_content, .-get_token_content
 270              		.section	.text.parse_token,"ax",%progbits
 271              		.align	2
ARM GAS  C:\Users\abhim\AppData\Local\Temp\cc8lg0jk.s 			page 8


 272              		.thumb
 273              		.thumb_func
 274              		.type	parse_token, %function
 275              	parse_token:
 276              	.LFB116:
 128:source\bsw/parser.c **** 
 129:source\bsw/parser.c **** // Helper function to print token info
 130:source\bsw/parser.c **** void print_token(const char* json_str, jsmntok_t* token, int index) {
 131:source\bsw/parser.c ****     char content[256] = {0};  // Buffer for token content
 132:source\bsw/parser.c ****     char output[512] = {0};   // Buffer for formatted output
 133:source\bsw/parser.c ****     
 134:source\bsw/parser.c ****     // Get token content
 135:source\bsw/parser.c ****     get_token_string(json_str, token, content, sizeof(content));
 136:source\bsw/parser.c ****     
 137:source\bsw/parser.c ****     // Format the output string
 138:source\bsw/parser.c ****     snprintf(output, sizeof(output),
 139:source\bsw/parser.c ****              "tsk_json : Parsed token %d - %s: %s\r\n",
 140:source\bsw/parser.c ****              index,
 141:source\bsw/parser.c ****              get_token_type_str(token->type),
 142:source\bsw/parser.c ****              content);
 143:source\bsw/parser.c ****     
 144:source\bsw/parser.c ****     UART_LOG_PutString(output);
 145:source\bsw/parser.c **** }
 146:source\bsw/parser.c **** 
 147:source\bsw/parser.c **** void get_token_string(const char* json_str, jsmntok_t* tok, char* buffer, size_t buffer_size) {
 148:source\bsw/parser.c ****     size_t length = tok->end - tok->start;
 149:source\bsw/parser.c ****     if (length >= buffer_size) length = buffer_size - 1;
 150:source\bsw/parser.c ****     memcpy(buffer, json_str + tok->start, length);
 151:source\bsw/parser.c ****     buffer[length] = '\0';
 152:source\bsw/parser.c **** }
 153:source\bsw/parser.c **** 
 154:source\bsw/parser.c **** // Helper function to extract string from JSON
 155:source\bsw/parser.c **** static char* json_token_tostr(const char* js, jsmntok_t* tok) {
 156:source\bsw/parser.c ****     char* str = malloc(tok->end - tok->start + 1);
 157:source\bsw/parser.c ****     if (str) {
 158:source\bsw/parser.c ****         strncpy(str, js + tok->start, tok->end - tok->start);
 159:source\bsw/parser.c ****         str[tok->end - tok->start] = '\0';
 160:source\bsw/parser.c ****     }
 161:source\bsw/parser.c ****     return str;
 162:source\bsw/parser.c **** }
 163:source\bsw/parser.c **** 
 164:source\bsw/parser.c **** // Helper function to parse a single token
 165:source\bsw/parser.c **** static json_value* parse_token(const char* json_str, jsmntok_t* tokens, size_t num_tokens, size_t* 
 277              		.loc 1 165 0
 278              		.cfi_startproc
 279              		@ args = 0, pretend = 0, frame = 0
 280              		@ frame_needed = 0, uses_anonymous_args = 0
 281              	.LVL29:
 282 0000 2DE9F84F 		push	{r3, r4, r5, r6, r7, r8, r9, r10, fp, lr}
 283              		.cfi_def_cfa_offset 40
 284              		.cfi_offset 3, -40
 285              		.cfi_offset 4, -36
 286              		.cfi_offset 5, -32
 287              		.cfi_offset 6, -28
 288              		.cfi_offset 7, -24
 289              		.cfi_offset 8, -20
 290              		.cfi_offset 9, -16
ARM GAS  C:\Users\abhim\AppData\Local\Temp\cc8lg0jk.s 			page 9


 291              		.cfi_offset 10, -12
 292              		.cfi_offset 11, -8
 293              		.cfi_offset 14, -4
 166:source\bsw/parser.c ****     if (*pos >= num_tokens) {
 294              		.loc 1 166 0
 295 0004 1C68     		ldr	r4, [r3]
 296 0006 9442     		cmp	r4, r2
 297 0008 80F0C880 		bcs	.L41
 298 000c 1D46     		mov	r5, r3
 299 000e 9246     		mov	r10, r2
 300 0010 0F46     		mov	r7, r1
 301 0012 8146     		mov	r9, r0
 167:source\bsw/parser.c ****         return NULL;
 168:source\bsw/parser.c ****     }
 169:source\bsw/parser.c **** 
 170:source\bsw/parser.c ****     jsmntok_t* token = &tokens[*pos];
 302              		.loc 1 170 0
 303 0014 2401     		lsls	r4, r4, #4
 304 0016 01EB040B 		add	fp, r1, r4
 305              	.LVL30:
 171:source\bsw/parser.c ****     json_value* value = malloc(sizeof(json_value));
 306              		.loc 1 171 0
 307 001a 1820     		movs	r0, #24
 308              	.LVL31:
 309 001c FFF7FEFF 		bl	malloc
 310              	.LVL32:
 172:source\bsw/parser.c ****     if (!value) {
 311              		.loc 1 172 0
 312 0020 0646     		mov	r6, r0
 313 0022 0028     		cmp	r0, #0
 314 0024 00F0BD80 		beq	.L42
 173:source\bsw/parser.c ****         return NULL;
 174:source\bsw/parser.c ****     }
 175:source\bsw/parser.c **** 
 176:source\bsw/parser.c ****     switch (token->type) {
 315              		.loc 1 176 0
 316 0028 3B5D     		ldrb	r3, [r7, r4]	@ zero_extendqisi2
 317 002a 013B     		subs	r3, r3, #1
 318 002c 072B     		cmp	r3, #7
 319 002e 00F2B080 		bhi	.L25
 320 0032 DFE803F0 		tbb	[pc, r3]
 321              	.L27:
 322 0036 6A       		.byte	(.L26-.L27)/2
 323 0037 38       		.byte	(.L28-.L27)/2
 324 0038 AE       		.byte	(.L25-.L27)/2
 325 0039 04       		.byte	(.L29-.L27)/2
 326 003a AE       		.byte	(.L25-.L27)/2
 327 003b AE       		.byte	(.L25-.L27)/2
 328 003c AE       		.byte	(.L25-.L27)/2
 329 003d 11       		.byte	(.L30-.L27)/2
 330              		.p2align 1
 331              	.L29:
 177:source\bsw/parser.c ****         case JSMN_STRING:
 178:source\bsw/parser.c ****             value->type = JSON_STRING;
 332              		.loc 1 178 0
 333 003e 0323     		movs	r3, #3
 334 0040 0370     		strb	r3, [r0]
ARM GAS  C:\Users\abhim\AppData\Local\Temp\cc8lg0jk.s 			page 10


 179:source\bsw/parser.c ****             value->data.string = get_token_content(json_str, token);
 335              		.loc 1 179 0
 336 0042 5946     		mov	r1, fp
 337 0044 4846     		mov	r0, r9
 338              	.LVL33:
 339 0046 FFF7FEFF 		bl	get_token_content
 340              	.LVL34:
 341 004a B060     		str	r0, [r6, #8]
 180:source\bsw/parser.c ****             (*pos)++;
 342              		.loc 1 180 0
 343 004c 2B68     		ldr	r3, [r5]
 344 004e 0133     		adds	r3, r3, #1
 345 0050 2B60     		str	r3, [r5]
 181:source\bsw/parser.c ****             break;
 182:source\bsw/parser.c **** 
 183:source\bsw/parser.c ****         case JSMN_PRIMITIVE: {
 184:source\bsw/parser.c ****             char* str = get_token_content(json_str, token);
 185:source\bsw/parser.c ****             if (str[0] == 'n') {
 186:source\bsw/parser.c ****                 value->type = JSON_NULL;
 187:source\bsw/parser.c ****             } else if (str[0] == 't') {
 188:source\bsw/parser.c ****                 value->type = JSON_BOOL;
 189:source\bsw/parser.c ****                 value->data.boolean = true;
 190:source\bsw/parser.c ****             } else if (str[0] == 'f') {
 191:source\bsw/parser.c ****                 value->type = JSON_BOOL;
 192:source\bsw/parser.c ****                 value->data.boolean = false;
 193:source\bsw/parser.c ****             } else {
 194:source\bsw/parser.c ****                 value->type = JSON_NUMBER;
 195:source\bsw/parser.c ****                 value->data.number = atof(str);
 196:source\bsw/parser.c ****             }
 197:source\bsw/parser.c ****             free(str);
 198:source\bsw/parser.c ****             (*pos)++;
 199:source\bsw/parser.c ****             break;
 200:source\bsw/parser.c ****         }
 201:source\bsw/parser.c **** 
 202:source\bsw/parser.c ****         case JSMN_ARRAY: {
 203:source\bsw/parser.c ****             value->type = JSON_ARRAY;
 204:source\bsw/parser.c ****             value->data.array.size = token->size;
 205:source\bsw/parser.c ****             value->data.array.items = malloc(sizeof(json_value) * token->size);
 206:source\bsw/parser.c ****             
 207:source\bsw/parser.c ****             (*pos)++;
 208:source\bsw/parser.c ****             for (size_t i = 0; i < token->size; i++) {
 209:source\bsw/parser.c ****                 json_value* item = parse_token(json_str, tokens, num_tokens, pos);
 210:source\bsw/parser.c ****                 if (item) {
 211:source\bsw/parser.c ****                     value->data.array.items[i] = *item;
 212:source\bsw/parser.c ****                     free(item);
 213:source\bsw/parser.c ****                 }
 214:source\bsw/parser.c ****             }
 215:source\bsw/parser.c ****             break;
 216:source\bsw/parser.c ****         }
 217:source\bsw/parser.c **** 
 218:source\bsw/parser.c ****         case JSMN_OBJECT: {
 219:source\bsw/parser.c ****             value->type = JSON_OBJECT;
 220:source\bsw/parser.c ****             value->data.object.size = token->size;
 221:source\bsw/parser.c ****             value->data.object.keys = malloc(sizeof(char*) * token->size);
 222:source\bsw/parser.c ****             value->data.object.values = malloc(sizeof(json_value) * token->size);
 223:source\bsw/parser.c ****             
 224:source\bsw/parser.c ****             (*pos)++;
ARM GAS  C:\Users\abhim\AppData\Local\Temp\cc8lg0jk.s 			page 11


 225:source\bsw/parser.c ****             for (size_t i = 0; i < token->size; i++) {
 226:source\bsw/parser.c ****                 // Get key
 227:source\bsw/parser.c ****                 char* key = get_token_content(json_str, &tokens[*pos]);
 228:source\bsw/parser.c ****                 value->data.object.keys[i] = key;
 229:source\bsw/parser.c ****                 (*pos)++;
 230:source\bsw/parser.c **** 
 231:source\bsw/parser.c ****                 // Get value
 232:source\bsw/parser.c ****                 json_value* val = parse_token(json_str, tokens, num_tokens, pos);
 233:source\bsw/parser.c ****                 if (val) {
 234:source\bsw/parser.c ****                     value->data.object.values[i] = *val;
 235:source\bsw/parser.c ****                     free(val);
 236:source\bsw/parser.c ****                 }
 237:source\bsw/parser.c ****             }
 238:source\bsw/parser.c ****             break;
 239:source\bsw/parser.c ****         }
 240:source\bsw/parser.c **** 
 241:source\bsw/parser.c ****         default:
 242:source\bsw/parser.c ****             free(value);
 243:source\bsw/parser.c ****             return NULL;
 244:source\bsw/parser.c ****     }
 245:source\bsw/parser.c **** 
 246:source\bsw/parser.c ****     return value;
 346              		.loc 1 246 0
 347 0052 3046     		mov	r0, r6
 181:source\bsw/parser.c ****             break;
 348              		.loc 1 181 0
 349 0054 BDE8F88F 		pop	{r3, r4, r5, r6, r7, r8, r9, r10, fp, pc}
 350              	.LVL35:
 351              	.L30:
 352              	.LBB2:
 184:source\bsw/parser.c ****             if (str[0] == 'n') {
 353              		.loc 1 184 0
 354 0058 5946     		mov	r1, fp
 355 005a 4846     		mov	r0, r9
 356              	.LVL36:
 357 005c FFF7FEFF 		bl	get_token_content
 358              	.LVL37:
 359 0060 0446     		mov	r4, r0
 360              	.LVL38:
 185:source\bsw/parser.c ****                 value->type = JSON_NULL;
 361              		.loc 1 185 0
 362 0062 0378     		ldrb	r3, [r0]	@ zero_extendqisi2
 363 0064 6E2B     		cmp	r3, #110
 364 0066 02D1     		bne	.L31
 186:source\bsw/parser.c ****             } else if (str[0] == 't') {
 365              		.loc 1 186 0
 366 0068 0023     		movs	r3, #0
 367 006a 3370     		strb	r3, [r6]
 368 006c 12E0     		b	.L32
 369              	.L31:
 187:source\bsw/parser.c ****                 value->type = JSON_BOOL;
 370              		.loc 1 187 0
 371 006e 742B     		cmp	r3, #116
 372 0070 03D1     		bne	.L33
 188:source\bsw/parser.c ****                 value->data.boolean = true;
 373              		.loc 1 188 0
 374 0072 0123     		movs	r3, #1
ARM GAS  C:\Users\abhim\AppData\Local\Temp\cc8lg0jk.s 			page 12


 375 0074 3370     		strb	r3, [r6]
 189:source\bsw/parser.c ****             } else if (str[0] == 'f') {
 376              		.loc 1 189 0
 377 0076 3372     		strb	r3, [r6, #8]
 378 0078 0CE0     		b	.L32
 379              	.L33:
 190:source\bsw/parser.c ****                 value->type = JSON_BOOL;
 380              		.loc 1 190 0
 381 007a 662B     		cmp	r3, #102
 382 007c 04D1     		bne	.L34
 191:source\bsw/parser.c ****                 value->data.boolean = false;
 383              		.loc 1 191 0
 384 007e 0123     		movs	r3, #1
 385 0080 3370     		strb	r3, [r6]
 192:source\bsw/parser.c ****             } else {
 386              		.loc 1 192 0
 387 0082 0023     		movs	r3, #0
 388 0084 3372     		strb	r3, [r6, #8]
 389 0086 05E0     		b	.L32
 390              	.L34:
 194:source\bsw/parser.c ****                 value->data.number = atof(str);
 391              		.loc 1 194 0
 392 0088 0223     		movs	r3, #2
 393 008a 3370     		strb	r3, [r6]
 195:source\bsw/parser.c ****             }
 394              		.loc 1 195 0
 395 008c FFF7FEFF 		bl	atof
 396              	.LVL39:
 397 0090 C6E90201 		strd	r0, [r6, #8]
 398              	.L32:
 197:source\bsw/parser.c ****             (*pos)++;
 399              		.loc 1 197 0
 400 0094 2046     		mov	r0, r4
 401 0096 FFF7FEFF 		bl	free
 402              	.LVL40:
 198:source\bsw/parser.c ****             break;
 403              		.loc 1 198 0
 404 009a 2B68     		ldr	r3, [r5]
 405 009c 0133     		adds	r3, r3, #1
 406 009e 2B60     		str	r3, [r5]
 407              	.LBE2:
 408              		.loc 1 246 0
 409 00a0 3046     		mov	r0, r6
 410              	.LBB3:
 199:source\bsw/parser.c ****         }
 411              		.loc 1 199 0
 412 00a2 BDE8F88F 		pop	{r3, r4, r5, r6, r7, r8, r9, r10, fp, pc}
 413              	.LVL41:
 414              	.L28:
 415              	.LBE3:
 203:source\bsw/parser.c ****             value->data.array.size = token->size;
 416              		.loc 1 203 0
 417 00a6 0423     		movs	r3, #4
 418 00a8 0370     		strb	r3, [r0]
 204:source\bsw/parser.c ****             value->data.array.items = malloc(sizeof(json_value) * token->size);
 419              		.loc 1 204 0
 420 00aa DBF80C30 		ldr	r3, [fp, #12]
ARM GAS  C:\Users\abhim\AppData\Local\Temp\cc8lg0jk.s 			page 13


 421 00ae C360     		str	r3, [r0, #12]
 205:source\bsw/parser.c ****             
 422              		.loc 1 205 0
 423 00b0 03EB4303 		add	r3, r3, r3, lsl #1
 424 00b4 D800     		lsls	r0, r3, #3
 425              	.LVL42:
 426 00b6 FFF7FEFF 		bl	malloc
 427              	.LVL43:
 428 00ba B060     		str	r0, [r6, #8]
 207:source\bsw/parser.c ****             for (size_t i = 0; i < token->size; i++) {
 429              		.loc 1 207 0
 430 00bc 2B68     		ldr	r3, [r5]
 431 00be 0133     		adds	r3, r3, #1
 432 00c0 2B60     		str	r3, [r5]
 433              	.LVL44:
 434              	.LBB4:
 208:source\bsw/parser.c ****                 json_value* item = parse_token(json_str, tokens, num_tokens, pos);
 435              		.loc 1 208 0
 436 00c2 4FF00008 		mov	r8, #0
 437 00c6 19E0     		b	.L35
 438              	.LVL45:
 439              	.L37:
 440              	.LBB5:
 209:source\bsw/parser.c ****                 if (item) {
 441              		.loc 1 209 0
 442 00c8 2B46     		mov	r3, r5
 443 00ca 5246     		mov	r2, r10
 444 00cc 3946     		mov	r1, r7
 445 00ce 4846     		mov	r0, r9
 446 00d0 FFF796FF 		bl	parse_token
 447              	.LVL46:
 210:source\bsw/parser.c ****                     value->data.array.items[i] = *item;
 448              		.loc 1 210 0
 449 00d4 8646     		mov	lr, r0
 450 00d6 78B1     		cbz	r0, .L36
 211:source\bsw/parser.c ****                     free(item);
 451              		.loc 1 211 0
 452 00d8 B468     		ldr	r4, [r6, #8]
 453 00da 08EB4802 		add	r2, r8, r8, lsl #1
 454 00de D300     		lsls	r3, r2, #3
 455 00e0 1C44     		add	r4, r4, r3
 456 00e2 8446     		mov	ip, r0
 457 00e4 BCE80F00 		ldmia	ip!, {r0, r1, r2, r3}
 458              	.LVL47:
 459 00e8 0FC4     		stmia	r4!, {r0, r1, r2, r3}
 460 00ea 9CE80300 		ldmia	ip, {r0, r1}
 461 00ee 84E80300 		stmia	r4, {r0, r1}
 212:source\bsw/parser.c ****                 }
 462              		.loc 1 212 0
 463 00f2 7046     		mov	r0, lr
 464 00f4 FFF7FEFF 		bl	free
 465              	.LVL48:
 466              	.L36:
 467              	.LBE5:
 208:source\bsw/parser.c ****                 json_value* item = parse_token(json_str, tokens, num_tokens, pos);
 468              		.loc 1 208 0 discriminator 2
 469 00f8 08F10108 		add	r8, r8, #1
ARM GAS  C:\Users\abhim\AppData\Local\Temp\cc8lg0jk.s 			page 14


 470              	.LVL49:
 471              	.L35:
 208:source\bsw/parser.c ****                 json_value* item = parse_token(json_str, tokens, num_tokens, pos);
 472              		.loc 1 208 0 is_stmt 0 discriminator 1
 473 00fc DBF80C30 		ldr	r3, [fp, #12]
 474 0100 9845     		cmp	r8, r3
 475 0102 E1D3     		bcc	.L37
 476              	.LBE4:
 477              		.loc 1 246 0 is_stmt 1
 478 0104 3046     		mov	r0, r6
 479 0106 BDE8F88F 		pop	{r3, r4, r5, r6, r7, r8, r9, r10, fp, pc}
 480              	.LVL50:
 481              	.L26:
 219:source\bsw/parser.c ****             value->data.object.size = token->size;
 482              		.loc 1 219 0
 483 010a 0523     		movs	r3, #5
 484 010c 0370     		strb	r3, [r0]
 220:source\bsw/parser.c ****             value->data.object.keys = malloc(sizeof(char*) * token->size);
 485              		.loc 1 220 0
 486 010e DBF80C00 		ldr	r0, [fp, #12]
 487              	.LVL51:
 488 0112 3061     		str	r0, [r6, #16]
 221:source\bsw/parser.c ****             value->data.object.values = malloc(sizeof(json_value) * token->size);
 489              		.loc 1 221 0
 490 0114 8000     		lsls	r0, r0, #2
 491 0116 FFF7FEFF 		bl	malloc
 492              	.LVL52:
 493 011a B060     		str	r0, [r6, #8]
 222:source\bsw/parser.c ****             
 494              		.loc 1 222 0
 495 011c DBF80C30 		ldr	r3, [fp, #12]
 496 0120 03EB4303 		add	r3, r3, r3, lsl #1
 497 0124 D800     		lsls	r0, r3, #3
 498 0126 FFF7FEFF 		bl	malloc
 499              	.LVL53:
 500 012a F060     		str	r0, [r6, #12]
 224:source\bsw/parser.c ****             for (size_t i = 0; i < token->size; i++) {
 501              		.loc 1 224 0
 502 012c 2B68     		ldr	r3, [r5]
 503 012e 0133     		adds	r3, r3, #1
 504 0130 2B60     		str	r3, [r5]
 505              	.LVL54:
 506              	.LBB6:
 225:source\bsw/parser.c ****                 // Get key
 507              		.loc 1 225 0
 508 0132 4FF00008 		mov	r8, #0
 509 0136 25E0     		b	.L38
 510              	.LVL55:
 511              	.L40:
 512              	.LBB7:
 227:source\bsw/parser.c ****                 value->data.object.keys[i] = key;
 513              		.loc 1 227 0
 514 0138 2968     		ldr	r1, [r5]
 515 013a 07EB0111 		add	r1, r7, r1, lsl #4
 516 013e 4846     		mov	r0, r9
 517 0140 FFF7FEFF 		bl	get_token_content
 518              	.LVL56:
ARM GAS  C:\Users\abhim\AppData\Local\Temp\cc8lg0jk.s 			page 15


 228:source\bsw/parser.c ****                 (*pos)++;
 519              		.loc 1 228 0
 520 0144 B368     		ldr	r3, [r6, #8]
 521 0146 43F82800 		str	r0, [r3, r8, lsl #2]
 229:source\bsw/parser.c **** 
 522              		.loc 1 229 0
 523 014a 2B68     		ldr	r3, [r5]
 524 014c 0133     		adds	r3, r3, #1
 525 014e 2B60     		str	r3, [r5]
 232:source\bsw/parser.c ****                 if (val) {
 526              		.loc 1 232 0
 527 0150 2B46     		mov	r3, r5
 528 0152 5246     		mov	r2, r10
 529 0154 3946     		mov	r1, r7
 530 0156 4846     		mov	r0, r9
 531              	.LVL57:
 532 0158 FFF752FF 		bl	parse_token
 533              	.LVL58:
 233:source\bsw/parser.c ****                     value->data.object.values[i] = *val;
 534              		.loc 1 233 0
 535 015c 8646     		mov	lr, r0
 536 015e 78B1     		cbz	r0, .L39
 234:source\bsw/parser.c ****                     free(val);
 537              		.loc 1 234 0
 538 0160 F468     		ldr	r4, [r6, #12]
 539 0162 08EB4802 		add	r2, r8, r8, lsl #1
 540 0166 D300     		lsls	r3, r2, #3
 541 0168 1C44     		add	r4, r4, r3
 542 016a 8446     		mov	ip, r0
 543 016c BCE80F00 		ldmia	ip!, {r0, r1, r2, r3}
 544              	.LVL59:
 545 0170 0FC4     		stmia	r4!, {r0, r1, r2, r3}
 546 0172 9CE80300 		ldmia	ip, {r0, r1}
 547 0176 84E80300 		stmia	r4, {r0, r1}
 235:source\bsw/parser.c ****                 }
 548              		.loc 1 235 0
 549 017a 7046     		mov	r0, lr
 550 017c FFF7FEFF 		bl	free
 551              	.LVL60:
 552              	.L39:
 553              	.LBE7:
 225:source\bsw/parser.c ****                 // Get key
 554              		.loc 1 225 0 discriminator 2
 555 0180 08F10108 		add	r8, r8, #1
 556              	.LVL61:
 557              	.L38:
 225:source\bsw/parser.c ****                 // Get key
 558              		.loc 1 225 0 is_stmt 0 discriminator 1
 559 0184 DBF80C30 		ldr	r3, [fp, #12]
 560 0188 9845     		cmp	r8, r3
 561 018a D5D3     		bcc	.L40
 562              	.LBE6:
 563              		.loc 1 246 0 is_stmt 1
 564 018c 3046     		mov	r0, r6
 565 018e BDE8F88F 		pop	{r3, r4, r5, r6, r7, r8, r9, r10, fp, pc}
 566              	.LVL62:
 567              	.L25:
ARM GAS  C:\Users\abhim\AppData\Local\Temp\cc8lg0jk.s 			page 16


 242:source\bsw/parser.c ****             return NULL;
 568              		.loc 1 242 0
 569 0192 FFF7FEFF 		bl	free
 570              	.LVL63:
 243:source\bsw/parser.c ****     }
 571              		.loc 1 243 0
 572 0196 0020     		movs	r0, #0
 573 0198 BDE8F88F 		pop	{r3, r4, r5, r6, r7, r8, r9, r10, fp, pc}
 574              	.LVL64:
 575              	.L41:
 167:source\bsw/parser.c ****     }
 576              		.loc 1 167 0
 577 019c 0020     		movs	r0, #0
 578              	.LVL65:
 579 019e BDE8F88F 		pop	{r3, r4, r5, r6, r7, r8, r9, r10, fp, pc}
 580              	.LVL66:
 581              	.L42:
 173:source\bsw/parser.c ****     }
 582              		.loc 1 173 0
 583 01a2 0020     		movs	r0, #0
 584              	.LVL67:
 247:source\bsw/parser.c **** }
 585              		.loc 1 247 0
 586 01a4 BDE8F88F 		pop	{r3, r4, r5, r6, r7, r8, r9, r10, fp, pc}
 587              		.cfi_endproc
 588              	.LFE116:
 589              		.size	parse_token, .-parse_token
 590              		.section	.text.get_token_string,"ax",%progbits
 591              		.align	2
 592              		.global	get_token_string
 593              		.thumb
 594              		.thumb_func
 595              		.type	get_token_string, %function
 596              	get_token_string:
 597              	.LFB114:
 147:source\bsw/parser.c ****     size_t length = tok->end - tok->start;
 598              		.loc 1 147 0
 599              		.cfi_startproc
 600              		@ args = 0, pretend = 0, frame = 0
 601              		@ frame_needed = 0, uses_anonymous_args = 0
 602              	.LVL68:
 603 0000 38B5     		push	{r3, r4, r5, lr}
 604              		.cfi_def_cfa_offset 16
 605              		.cfi_offset 3, -16
 606              		.cfi_offset 4, -12
 607              		.cfi_offset 5, -8
 608              		.cfi_offset 14, -4
 609 0002 1546     		mov	r5, r2
 148:source\bsw/parser.c ****     if (length >= buffer_size) length = buffer_size - 1;
 610              		.loc 1 148 0
 611 0004 8C68     		ldr	r4, [r1, #8]
 612 0006 4968     		ldr	r1, [r1, #4]
 613              	.LVL69:
 614 0008 641A     		subs	r4, r4, r1
 615              	.LVL70:
 149:source\bsw/parser.c ****     memcpy(buffer, json_str + tok->start, length);
 616              		.loc 1 149 0
ARM GAS  C:\Users\abhim\AppData\Local\Temp\cc8lg0jk.s 			page 17


 617 000a 9C42     		cmp	r4, r3
 618 000c 00D3     		bcc	.L45
 149:source\bsw/parser.c ****     memcpy(buffer, json_str + tok->start, length);
 619              		.loc 1 149 0 is_stmt 0 discriminator 1
 620 000e 5C1E     		subs	r4, r3, #1
 621              	.LVL71:
 622              	.L45:
 150:source\bsw/parser.c ****     buffer[length] = '\0';
 623              		.loc 1 150 0 is_stmt 1
 624 0010 2246     		mov	r2, r4
 625              	.LVL72:
 626 0012 0144     		add	r1, r1, r0
 627 0014 2846     		mov	r0, r5
 628              	.LVL73:
 629 0016 FFF7FEFF 		bl	memcpy
 630              	.LVL74:
 151:source\bsw/parser.c **** }
 631              		.loc 1 151 0
 632 001a 0023     		movs	r3, #0
 633 001c 2B55     		strb	r3, [r5, r4]
 634 001e 38BD     		pop	{r3, r4, r5, pc}
 635              		.cfi_endproc
 636              	.LFE114:
 637              		.size	get_token_string, .-get_token_string
 638              		.section	.text.print_token,"ax",%progbits
 639              		.align	2
 640              		.global	print_token
 641              		.thumb
 642              		.thumb_func
 643              		.type	print_token, %function
 644              	print_token:
 645              	.LFB113:
 130:source\bsw/parser.c ****     char content[256] = {0};  // Buffer for token content
 646              		.loc 1 130 0
 647              		.cfi_startproc
 648              		@ args = 0, pretend = 0, frame = 768
 649              		@ frame_needed = 0, uses_anonymous_args = 0
 650              	.LVL75:
 651 0000 2DE9F043 		push	{r4, r5, r6, r7, r8, r9, lr}
 652              		.cfi_def_cfa_offset 28
 653              		.cfi_offset 4, -28
 654              		.cfi_offset 5, -24
 655              		.cfi_offset 6, -20
 656              		.cfi_offset 7, -16
 657              		.cfi_offset 8, -12
 658              		.cfi_offset 9, -8
 659              		.cfi_offset 14, -4
 660 0004 ADF5437D 		sub	sp, sp, #780
 661              		.cfi_def_cfa_offset 808
 662 0008 8146     		mov	r9, r0
 663 000a 0E46     		mov	r6, r1
 664 000c 9046     		mov	r8, r2
 131:source\bsw/parser.c ****     char output[512] = {0};   // Buffer for formatted output
 665              		.loc 1 131 0
 666 000e 82AC     		add	r4, sp, #520
 667 0010 4FF48077 		mov	r7, #256
 668 0014 3A46     		mov	r2, r7
ARM GAS  C:\Users\abhim\AppData\Local\Temp\cc8lg0jk.s 			page 18


 669              	.LVL76:
 670 0016 0021     		movs	r1, #0
 671              	.LVL77:
 672 0018 2046     		mov	r0, r4
 673              	.LVL78:
 674 001a FFF7FEFF 		bl	memset
 675              	.LVL79:
 132:source\bsw/parser.c ****     
 676              		.loc 1 132 0
 677 001e 4FF40075 		mov	r5, #512
 678 0022 2A46     		mov	r2, r5
 679 0024 0021     		movs	r1, #0
 680 0026 02A8     		add	r0, sp, #8
 681 0028 FFF7FEFF 		bl	memset
 682              	.LVL80:
 135:source\bsw/parser.c ****     
 683              		.loc 1 135 0
 684 002c 3B46     		mov	r3, r7
 685 002e 2246     		mov	r2, r4
 686 0030 3146     		mov	r1, r6
 687 0032 4846     		mov	r0, r9
 688 0034 FFF7FEFF 		bl	get_token_string
 689              	.LVL81:
 138:source\bsw/parser.c ****              "tsk_json : Parsed token %d - %s: %s\r\n",
 690              		.loc 1 138 0
 691 0038 3078     		ldrb	r0, [r6]	@ zero_extendqisi2
 692 003a FFF7FEFF 		bl	get_token_type_str
 693              	.LVL82:
 694 003e 0194     		str	r4, [sp, #4]
 695 0040 0090     		str	r0, [sp]
 696 0042 4346     		mov	r3, r8
 697 0044 054A     		ldr	r2, .L49
 698 0046 2946     		mov	r1, r5
 699 0048 02A8     		add	r0, sp, #8
 700 004a FFF7FEFF 		bl	snprintf
 701              	.LVL83:
 144:source\bsw/parser.c **** }
 702              		.loc 1 144 0
 703 004e 02A8     		add	r0, sp, #8
 704 0050 FFF7FEFF 		bl	UART_LOG_PutString
 705              	.LVL84:
 145:source\bsw/parser.c **** 
 706              		.loc 1 145 0
 707 0054 0DF5437D 		add	sp, sp, #780
 708              		.cfi_def_cfa_offset 28
 709              		@ sp needed
 710 0058 BDE8F083 		pop	{r4, r5, r6, r7, r8, r9, pc}
 711              	.LVL85:
 712              	.L50:
 713              		.align	2
 714              	.L49:
 715 005c 48010000 		.word	.LC14
 716              		.cfi_endproc
 717              	.LFE113:
 718              		.size	print_token, .-print_token
 719              		.section	.text.parse_json,"ax",%progbits
 720              		.align	2
ARM GAS  C:\Users\abhim\AppData\Local\Temp\cc8lg0jk.s 			page 19


 721              		.global	parse_json
 722              		.thumb
 723              		.thumb_func
 724              		.type	parse_json, %function
 725              	parse_json:
 726              	.LFB117:
 248:source\bsw/parser.c **** 
 249:source\bsw/parser.c **** json_value* parse_json(const char* json_str) {
 727              		.loc 1 249 0
 728              		.cfi_startproc
 729              		@ args = 0, pretend = 0, frame = 4624
 730              		@ frame_needed = 0, uses_anonymous_args = 0
 731              	.LVL86:
 250:source\bsw/parser.c ****     if (!json_str) {
 732              		.loc 1 250 0
 733 0000 0028     		cmp	r0, #0
 734 0002 42D0     		beq	.L55
 249:source\bsw/parser.c ****     if (!json_str) {
 735              		.loc 1 249 0
 736 0004 70B5     		push	{r4, r5, r6, lr}
 737              		.cfi_def_cfa_offset 16
 738              		.cfi_offset 4, -16
 739              		.cfi_offset 5, -12
 740              		.cfi_offset 6, -8
 741              		.cfi_offset 14, -4
 742 0006 ADF5905D 		sub	sp, sp, #4608
 743              		.cfi_def_cfa_offset 4624
 744 000a 86B0     		sub	sp, sp, #24
 745              		.cfi_def_cfa_offset 4648
 746 000c 0546     		mov	r5, r0
 251:source\bsw/parser.c ****         return NULL;
 252:source\bsw/parser.c ****     }
 253:source\bsw/parser.c ****     
 254:source\bsw/parser.c ****     jsmn_parser parser;
 255:source\bsw/parser.c ****     jsmntok_t tokens[MAX_TOKENS];
 256:source\bsw/parser.c ****     char buffer[512] = {0};
 747              		.loc 1 256 0
 748 000e 4FF40074 		mov	r4, #512
 749 0012 2246     		mov	r2, r4
 750 0014 0021     		movs	r1, #0
 751 0016 03A8     		add	r0, sp, #12
 752              	.LVL87:
 753 0018 FFF7FEFF 		bl	memset
 754              	.LVL88:
 257:source\bsw/parser.c ****     
 258:source\bsw/parser.c ****     jsmn_init(&parser);
 755              		.loc 1 258 0
 756 001c 0DF59050 		add	r0, sp, #4608
 757 0020 0C30     		adds	r0, r0, #12
 758 0022 FFF7FEFF 		bl	jsmn_init
 759              	.LVL89:
 259:source\bsw/parser.c ****     
 260:source\bsw/parser.c ****     // Print initial processing message
 261:source\bsw/parser.c ****     snprintf(buffer, sizeof(buffer), 
 760              		.loc 1 261 0
 761 0026 2846     		mov	r0, r5
 762 0028 FFF7FEFF 		bl	strlen
ARM GAS  C:\Users\abhim\AppData\Local\Temp\cc8lg0jk.s 			page 20


 763              	.LVL90:
 764 002c 0090     		str	r0, [sp]
 765 002e 2B46     		mov	r3, r5
 766 0030 194A     		ldr	r2, .L58
 767 0032 2146     		mov	r1, r4
 768 0034 03A8     		add	r0, sp, #12
 769 0036 FFF7FEFF 		bl	snprintf
 770              	.LVL91:
 262:source\bsw/parser.c ****              "tsk_json : Processing data %s length %u\r\n",
 263:source\bsw/parser.c ****              json_str, strlen(json_str));
 264:source\bsw/parser.c ****     UART_LOG_PutString(buffer);
 771              		.loc 1 264 0
 772 003a 03A8     		add	r0, sp, #12
 773 003c FFF7FEFF 		bl	UART_LOG_PutString
 774              	.LVL92:
 265:source\bsw/parser.c ****     
 266:source\bsw/parser.c ****     // Parse JSON string
 267:source\bsw/parser.c ****     int token_count = jsmn_parse(&parser, json_str, strlen(json_str), tokens, MAX_TOKENS);
 775              		.loc 1 267 0
 776 0040 2846     		mov	r0, r5
 777 0042 FFF7FEFF 		bl	strlen
 778              	.LVL93:
 779 0046 4FF48073 		mov	r3, #256
 780 004a 0093     		str	r3, [sp]
 781 004c 83AB     		add	r3, sp, #524
 782 004e 0246     		mov	r2, r0
 783 0050 2946     		mov	r1, r5
 784 0052 0DF59050 		add	r0, sp, #4608
 785 0056 0C30     		adds	r0, r0, #12
 786 0058 FFF7FEFF 		bl	jsmn_parse
 787              	.LVL94:
 268:source\bsw/parser.c ****     
 269:source\bsw/parser.c ****     if (token_count < 0) {
 788              		.loc 1 269 0
 789 005c 061E     		subs	r6, r0, #0
 790 005e 16DB     		blt	.L56
 791 0060 0024     		movs	r4, #0
 792 0062 07E0     		b	.L53
 793              	.LVL95:
 794              	.L54:
 795              	.LBB8:
 270:source\bsw/parser.c ****         return NULL;
 271:source\bsw/parser.c ****     }
 272:source\bsw/parser.c ****     
 273:source\bsw/parser.c ****     // Print all tokens
 274:source\bsw/parser.c ****     for (int i = 0; i < token_count; i++) {
 275:source\bsw/parser.c ****         print_token(json_str, &tokens[i], i);
 796              		.loc 1 275 0 discriminator 3
 797 0064 2246     		mov	r2, r4
 798 0066 83AB     		add	r3, sp, #524
 799 0068 03EB0411 		add	r1, r3, r4, lsl #4
 800 006c 2846     		mov	r0, r5
 801 006e FFF7FEFF 		bl	print_token
 802              	.LVL96:
 274:source\bsw/parser.c ****         print_token(json_str, &tokens[i], i);
 803              		.loc 1 274 0 discriminator 3
 804 0072 0134     		adds	r4, r4, #1
ARM GAS  C:\Users\abhim\AppData\Local\Temp\cc8lg0jk.s 			page 21


 805              	.LVL97:
 806              	.L53:
 274:source\bsw/parser.c ****         print_token(json_str, &tokens[i], i);
 807              		.loc 1 274 0 is_stmt 0 discriminator 1
 808 0074 B442     		cmp	r4, r6
 809 0076 F5DB     		blt	.L54
 810              	.LBE8:
 276:source\bsw/parser.c ****     }
 277:source\bsw/parser.c ****     
 278:source\bsw/parser.c ****     size_t pos = 0;
 811              		.loc 1 278 0 is_stmt 1
 812 0078 0023     		movs	r3, #0
 813 007a 0293     		str	r3, [sp, #8]
 279:source\bsw/parser.c ****     return parse_token(json_str, tokens, token_count, &pos);
 814              		.loc 1 279 0
 815 007c 02AB     		add	r3, sp, #8
 816 007e 3246     		mov	r2, r6
 817 0080 83A9     		add	r1, sp, #524
 818 0082 2846     		mov	r0, r5
 819 0084 FFF7FEFF 		bl	parse_token
 820              	.LVL98:
 821 0088 02E0     		b	.L52
 822              	.LVL99:
 823              	.L55:
 824              		.cfi_def_cfa_offset 0
 825              		.cfi_restore 4
 826              		.cfi_restore 5
 827              		.cfi_restore 6
 828              		.cfi_restore 14
 251:source\bsw/parser.c ****     }
 829              		.loc 1 251 0
 830 008a 0020     		movs	r0, #0
 831              	.LVL100:
 280:source\bsw/parser.c **** }
 832              		.loc 1 280 0
 833 008c 7047     		bx	lr
 834              	.LVL101:
 835              	.L56:
 836              		.cfi_def_cfa_offset 4648
 837              		.cfi_offset 4, -16
 838              		.cfi_offset 5, -12
 839              		.cfi_offset 6, -8
 840              		.cfi_offset 14, -4
 270:source\bsw/parser.c ****     }
 841              		.loc 1 270 0
 842 008e 0020     		movs	r0, #0
 843              	.LVL102:
 844              	.L52:
 845              		.loc 1 280 0
 846 0090 0DF5905D 		add	sp, sp, #4608
 847 0094 06B0     		add	sp, sp, #24
 848              		.cfi_def_cfa_offset 16
 849              		@ sp needed
 850 0096 70BD     		pop	{r4, r5, r6, pc}
 851              	.LVL103:
 852              	.L59:
 853              		.align	2
ARM GAS  C:\Users\abhim\AppData\Local\Temp\cc8lg0jk.s 			page 22


 854              	.L58:
 855 0098 70010000 		.word	.LC15
 856              		.cfi_endproc
 857              	.LFE117:
 858              		.size	parse_json, .-parse_json
 859              		.section	.text.free_json_value,"ax",%progbits
 860              		.align	2
 861              		.global	free_json_value
 862              		.thumb
 863              		.thumb_func
 864              		.type	free_json_value, %function
 865              	free_json_value:
 866              	.LFB118:
 281:source\bsw/parser.c **** 
 282:source\bsw/parser.c **** void free_json_value(json_value* value) {
 867              		.loc 1 282 0
 868              		.cfi_startproc
 869              		@ args = 0, pretend = 0, frame = 0
 870              		@ frame_needed = 0, uses_anonymous_args = 0
 871              	.LVL104:
 283:source\bsw/parser.c ****     if (!value) return;
 872              		.loc 1 283 0
 873 0000 0028     		cmp	r0, #0
 874 0002 36D0     		beq	.L70
 282:source\bsw/parser.c ****     if (!value) return;
 875              		.loc 1 282 0
 876 0004 38B5     		push	{r3, r4, r5, lr}
 877              		.cfi_def_cfa_offset 16
 878              		.cfi_offset 3, -16
 879              		.cfi_offset 4, -12
 880              		.cfi_offset 5, -8
 881              		.cfi_offset 14, -4
 882 0006 0446     		mov	r4, r0
 284:source\bsw/parser.c **** 
 285:source\bsw/parser.c ****     switch (value->type) {
 883              		.loc 1 285 0
 884 0008 0378     		ldrb	r3, [r0]	@ zero_extendqisi2
 885 000a 042B     		cmp	r3, #4
 886 000c 10D0     		beq	.L67
 887 000e 052B     		cmp	r3, #5
 888 0010 24D0     		beq	.L68
 889 0012 032B     		cmp	r3, #3
 890 0014 2CD1     		bne	.L60
 286:source\bsw/parser.c ****         case JSON_STRING:
 287:source\bsw/parser.c ****             free(value->data.string);
 891              		.loc 1 287 0
 892 0016 8068     		ldr	r0, [r0, #8]
 893              	.LVL105:
 894 0018 FFF7FEFF 		bl	free
 895              	.LVL106:
 288:source\bsw/parser.c ****             break;
 896              		.loc 1 288 0
 897 001c 38BD     		pop	{r3, r4, r5, pc}
 898              	.LVL107:
 899              	.L65:
 900              	.LBB9:
 289:source\bsw/parser.c ****             
ARM GAS  C:\Users\abhim\AppData\Local\Temp\cc8lg0jk.s 			page 23


 290:source\bsw/parser.c ****         case JSON_ARRAY:
 291:source\bsw/parser.c ****             for (size_t i = 0; i < value->data.array.size; i++) {
 292:source\bsw/parser.c ****                 free_json_value(&value->data.array.items[i]);
 901              		.loc 1 292 0 discriminator 3
 902 001e A068     		ldr	r0, [r4, #8]
 903 0020 05EB4502 		add	r2, r5, r5, lsl #1
 904 0024 D300     		lsls	r3, r2, #3
 905 0026 1844     		add	r0, r0, r3
 906 0028 FFF7FEFF 		bl	free_json_value
 907              	.LVL108:
 291:source\bsw/parser.c ****                 free_json_value(&value->data.array.items[i]);
 908              		.loc 1 291 0 discriminator 3
 909 002c 0135     		adds	r5, r5, #1
 910              	.LVL109:
 911 002e 00E0     		b	.L62
 912              	.LVL110:
 913              	.L67:
 914              	.LBE9:
 285:source\bsw/parser.c ****         case JSON_STRING:
 915              		.loc 1 285 0
 916 0030 0025     		movs	r5, #0
 917              	.LVL111:
 918              	.L62:
 919              	.LBB10:
 291:source\bsw/parser.c ****                 free_json_value(&value->data.array.items[i]);
 920              		.loc 1 291 0 discriminator 1
 921 0032 E368     		ldr	r3, [r4, #12]
 922 0034 9D42     		cmp	r5, r3
 923 0036 F2D3     		bcc	.L65
 924              	.LBE10:
 293:source\bsw/parser.c ****             }
 294:source\bsw/parser.c ****             free(value->data.array.items);
 925              		.loc 1 294 0
 926 0038 A068     		ldr	r0, [r4, #8]
 927 003a FFF7FEFF 		bl	free
 928              	.LVL112:
 295:source\bsw/parser.c ****             break;
 929              		.loc 1 295 0
 930 003e 38BD     		pop	{r3, r4, r5, pc}
 931              	.LVL113:
 932              	.L66:
 933              	.LBB11:
 296:source\bsw/parser.c ****             
 297:source\bsw/parser.c ****         case JSON_OBJECT:
 298:source\bsw/parser.c ****             for (size_t i = 0; i < value->data.object.size; i++) {
 299:source\bsw/parser.c ****                 free(value->data.object.keys[i]);
 934              		.loc 1 299 0 discriminator 3
 935 0040 A368     		ldr	r3, [r4, #8]
 936 0042 53F82500 		ldr	r0, [r3, r5, lsl #2]
 937 0046 FFF7FEFF 		bl	free
 938              	.LVL114:
 300:source\bsw/parser.c ****                 free_json_value(&value->data.object.values[i]);
 939              		.loc 1 300 0 discriminator 3
 940 004a E068     		ldr	r0, [r4, #12]
 941 004c 05EB4502 		add	r2, r5, r5, lsl #1
 942 0050 D300     		lsls	r3, r2, #3
 943 0052 1844     		add	r0, r0, r3
ARM GAS  C:\Users\abhim\AppData\Local\Temp\cc8lg0jk.s 			page 24


 944 0054 FFF7FEFF 		bl	free_json_value
 945              	.LVL115:
 298:source\bsw/parser.c ****                 free(value->data.object.keys[i]);
 946              		.loc 1 298 0 discriminator 3
 947 0058 0135     		adds	r5, r5, #1
 948              	.LVL116:
 949 005a 00E0     		b	.L63
 950              	.LVL117:
 951              	.L68:
 952              	.LBE11:
 285:source\bsw/parser.c ****         case JSON_STRING:
 953              		.loc 1 285 0
 954 005c 0025     		movs	r5, #0
 955              	.LVL118:
 956              	.L63:
 957              	.LBB12:
 298:source\bsw/parser.c ****                 free(value->data.object.keys[i]);
 958              		.loc 1 298 0 discriminator 1
 959 005e 2369     		ldr	r3, [r4, #16]
 960 0060 9D42     		cmp	r5, r3
 961 0062 EDD3     		bcc	.L66
 962              	.LBE12:
 301:source\bsw/parser.c ****             }
 302:source\bsw/parser.c ****             free(value->data.object.keys);
 963              		.loc 1 302 0
 964 0064 A068     		ldr	r0, [r4, #8]
 965 0066 FFF7FEFF 		bl	free
 966              	.LVL119:
 303:source\bsw/parser.c ****             free(value->data.object.values);
 967              		.loc 1 303 0
 968 006a E068     		ldr	r0, [r4, #12]
 969 006c FFF7FEFF 		bl	free
 970              	.LVL120:
 971              	.L60:
 972 0070 38BD     		pop	{r3, r4, r5, pc}
 973              	.LVL121:
 974              	.L70:
 975              		.cfi_def_cfa_offset 0
 976              		.cfi_restore 3
 977              		.cfi_restore 4
 978              		.cfi_restore 5
 979              		.cfi_restore 14
 980 0072 7047     		bx	lr
 981              		.cfi_endproc
 982              	.LFE118:
 983              		.size	free_json_value, .-free_json_value
 984              		.section	.text.json_get_field,"ax",%progbits
 985              		.align	2
 986              		.global	json_get_field
 987              		.thumb
 988              		.thumb_func
 989              		.type	json_get_field, %function
 990              	json_get_field:
 991              	.LFB119:
 304:source\bsw/parser.c ****             break;
 305:source\bsw/parser.c ****             
 306:source\bsw/parser.c ****         default:
ARM GAS  C:\Users\abhim\AppData\Local\Temp\cc8lg0jk.s 			page 25


 307:source\bsw/parser.c ****             break;
 308:source\bsw/parser.c ****     }
 309:source\bsw/parser.c **** }
 310:source\bsw/parser.c **** 
 311:source\bsw/parser.c **** const json_value* json_get_field(const json_value* obj, const char* key) {
 992              		.loc 1 311 0
 993              		.cfi_startproc
 994              		@ args = 0, pretend = 0, frame = 0
 995              		@ frame_needed = 0, uses_anonymous_args = 0
 996              	.LVL122:
 312:source\bsw/parser.c ****     if (!obj || obj->type != JSON_OBJECT || !key) return NULL;
 997              		.loc 1 312 0
 998 0000 D8B1     		cbz	r0, .L76
 311:source\bsw/parser.c ****     if (!obj || obj->type != JSON_OBJECT || !key) return NULL;
 999              		.loc 1 311 0 discriminator 2
 1000 0002 70B5     		push	{r4, r5, r6, lr}
 1001              		.cfi_def_cfa_offset 16
 1002              		.cfi_offset 4, -16
 1003              		.cfi_offset 5, -12
 1004              		.cfi_offset 6, -8
 1005              		.cfi_offset 14, -4
 1006 0004 0546     		mov	r5, r0
 1007              		.loc 1 312 0 discriminator 2
 1008 0006 0378     		ldrb	r3, [r0]	@ zero_extendqisi2
 1009 0008 052B     		cmp	r3, #5
 1010 000a 18D1     		bne	.L77
 1011              		.loc 1 312 0 is_stmt 0 discriminator 4
 1012 000c C9B1     		cbz	r1, .L78
 1013 000e 0E46     		mov	r6, r1
 1014 0010 0024     		movs	r4, #0
 1015 0012 0DE0     		b	.L73
 1016              	.LVL123:
 1017              	.L75:
 1018              	.LBB13:
 313:source\bsw/parser.c **** 
 314:source\bsw/parser.c ****     for (size_t i = 0; i < obj->data.object.size; i++) {
 315:source\bsw/parser.c ****         if (strcmp(obj->data.object.keys[i], key) == 0) {
 1019              		.loc 1 315 0 is_stmt 1
 1020 0014 AB68     		ldr	r3, [r5, #8]
 1021 0016 3146     		mov	r1, r6
 1022 0018 53F82400 		ldr	r0, [r3, r4, lsl #2]
 1023 001c FFF7FEFF 		bl	strcmp
 1024              	.LVL124:
 1025 0020 28B9     		cbnz	r0, .L74
 316:source\bsw/parser.c ****             return &obj->data.object.values[i];
 1026              		.loc 1 316 0
 1027 0022 E868     		ldr	r0, [r5, #12]
 1028 0024 04EB4404 		add	r4, r4, r4, lsl #1
 1029              	.LVL125:
 1030 0028 E300     		lsls	r3, r4, #3
 1031 002a 1844     		add	r0, r0, r3
 1032 002c 70BD     		pop	{r4, r5, r6, pc}
 1033              	.LVL126:
 1034              	.L74:
 314:source\bsw/parser.c ****         if (strcmp(obj->data.object.keys[i], key) == 0) {
 1035              		.loc 1 314 0 discriminator 2
 1036 002e 0134     		adds	r4, r4, #1
ARM GAS  C:\Users\abhim\AppData\Local\Temp\cc8lg0jk.s 			page 26


 1037              	.LVL127:
 1038              	.L73:
 314:source\bsw/parser.c ****         if (strcmp(obj->data.object.keys[i], key) == 0) {
 1039              		.loc 1 314 0 is_stmt 0 discriminator 1
 1040 0030 2B69     		ldr	r3, [r5, #16]
 1041 0032 9C42     		cmp	r4, r3
 1042 0034 EED3     		bcc	.L75
 1043              	.LBE13:
 317:source\bsw/parser.c ****         }
 318:source\bsw/parser.c ****     }
 319:source\bsw/parser.c ****     return NULL;
 1044              		.loc 1 319 0 is_stmt 1
 1045 0036 0020     		movs	r0, #0
 1046              	.LBB14:
 1047 0038 70BD     		pop	{r4, r5, r6, pc}
 1048              	.LVL128:
 1049              	.L76:
 1050              		.cfi_def_cfa_offset 0
 1051              		.cfi_restore 4
 1052              		.cfi_restore 5
 1053              		.cfi_restore 6
 1054              		.cfi_restore 14
 1055              	.LBE14:
 312:source\bsw/parser.c **** 
 1056              		.loc 1 312 0
 1057 003a 0020     		movs	r0, #0
 1058              	.LVL129:
 320:source\bsw/parser.c **** }
 1059              		.loc 1 320 0
 1060 003c 7047     		bx	lr
 1061              	.LVL130:
 1062              	.L77:
 1063              		.cfi_def_cfa_offset 16
 1064              		.cfi_offset 4, -16
 1065              		.cfi_offset 5, -12
 1066              		.cfi_offset 6, -8
 1067              		.cfi_offset 14, -4
 312:source\bsw/parser.c **** 
 1068              		.loc 1 312 0
 1069 003e 0020     		movs	r0, #0
 1070              	.LVL131:
 1071 0040 70BD     		pop	{r4, r5, r6, pc}
 1072              	.LVL132:
 1073              	.L78:
 1074 0042 0020     		movs	r0, #0
 1075              	.LVL133:
 1076              		.loc 1 320 0
 1077 0044 70BD     		pop	{r4, r5, r6, pc}
 1078              		.cfi_endproc
 1079              	.LFE119:
 1080              		.size	json_get_field, .-json_get_field
 1081 0046 00BF     		.section	.text.json_get_number,"ax",%progbits
 1082              		.align	2
 1083              		.global	json_get_number
 1084              		.thumb
 1085              		.thumb_func
 1086              		.type	json_get_number, %function
ARM GAS  C:\Users\abhim\AppData\Local\Temp\cc8lg0jk.s 			page 27


 1087              	json_get_number:
 1088              	.LFB120:
 321:source\bsw/parser.c **** 
 322:source\bsw/parser.c **** bool json_get_number(const json_value* obj, const char* key, double* out) {
 1089              		.loc 1 322 0
 1090              		.cfi_startproc
 1091              		@ args = 0, pretend = 0, frame = 0
 1092              		@ frame_needed = 0, uses_anonymous_args = 0
 1093              	.LVL134:
 1094 0000 10B5     		push	{r4, lr}
 1095              		.cfi_def_cfa_offset 8
 1096              		.cfi_offset 4, -8
 1097              		.cfi_offset 14, -4
 1098 0002 1446     		mov	r4, r2
 323:source\bsw/parser.c ****     const json_value* field = json_get_field(obj, key);
 1099              		.loc 1 323 0
 1100 0004 FFF7FEFF 		bl	json_get_field
 1101              	.LVL135:
 324:source\bsw/parser.c ****     if (field && field->type == JSON_NUMBER && out) {
 1102              		.loc 1 324 0
 1103 0008 48B1     		cbz	r0, .L82
 1104              		.loc 1 324 0 is_stmt 0 discriminator 1
 1105 000a 0278     		ldrb	r2, [r0]	@ zero_extendqisi2
 1106 000c 022A     		cmp	r2, #2
 1107 000e 08D1     		bne	.L83
 1108              		.loc 1 324 0 discriminator 2
 1109 0010 4CB1     		cbz	r4, .L84
 325:source\bsw/parser.c ****         *out = field->data.number;
 1110              		.loc 1 325 0 is_stmt 1
 1111 0012 D0E90223 		ldrd	r2, [r0, #8]
 1112 0016 C4E90023 		strd	r2, [r4]
 326:source\bsw/parser.c ****         return true;
 1113              		.loc 1 326 0
 1114 001a 0120     		movs	r0, #1
 1115              	.LVL136:
 1116 001c 10BD     		pop	{r4, pc}
 1117              	.LVL137:
 1118              	.L82:
 327:source\bsw/parser.c ****     }
 328:source\bsw/parser.c ****     return false;
 1119              		.loc 1 328 0
 1120 001e 0020     		movs	r0, #0
 1121              	.LVL138:
 1122 0020 10BD     		pop	{r4, pc}
 1123              	.LVL139:
 1124              	.L83:
 1125 0022 0020     		movs	r0, #0
 1126              	.LVL140:
 1127 0024 10BD     		pop	{r4, pc}
 1128              	.LVL141:
 1129              	.L84:
 1130 0026 0020     		movs	r0, #0
 1131              	.LVL142:
 329:source\bsw/parser.c **** }
 1132              		.loc 1 329 0
 1133 0028 10BD     		pop	{r4, pc}
 1134              		.cfi_endproc
ARM GAS  C:\Users\abhim\AppData\Local\Temp\cc8lg0jk.s 			page 28


 1135              	.LFE120:
 1136              		.size	json_get_number, .-json_get_number
 1137 002a 00BF     		.section	.text.json_get_string,"ax",%progbits
 1138              		.align	2
 1139              		.global	json_get_string
 1140              		.thumb
 1141              		.thumb_func
 1142              		.type	json_get_string, %function
 1143              	json_get_string:
 1144              	.LFB121:
 330:source\bsw/parser.c **** 
 331:source\bsw/parser.c **** bool json_get_string(const json_value* obj, const char* key, const char** out) {
 1145              		.loc 1 331 0
 1146              		.cfi_startproc
 1147              		@ args = 0, pretend = 0, frame = 0
 1148              		@ frame_needed = 0, uses_anonymous_args = 0
 1149              	.LVL143:
 1150 0000 10B5     		push	{r4, lr}
 1151              		.cfi_def_cfa_offset 8
 1152              		.cfi_offset 4, -8
 1153              		.cfi_offset 14, -4
 1154 0002 1446     		mov	r4, r2
 332:source\bsw/parser.c ****     const json_value* field = json_get_field(obj, key);
 1155              		.loc 1 332 0
 1156 0004 FFF7FEFF 		bl	json_get_field
 1157              	.LVL144:
 333:source\bsw/parser.c ****     if (field && field->type == JSON_STRING && out) {
 1158              		.loc 1 333 0
 1159 0008 38B1     		cbz	r0, .L88
 1160              		.loc 1 333 0 is_stmt 0 discriminator 1
 1161 000a 0278     		ldrb	r2, [r0]	@ zero_extendqisi2
 1162 000c 032A     		cmp	r2, #3
 1163 000e 06D1     		bne	.L89
 1164              		.loc 1 333 0 discriminator 2
 1165 0010 3CB1     		cbz	r4, .L90
 334:source\bsw/parser.c ****         *out = field->data.string;
 1166              		.loc 1 334 0 is_stmt 1
 1167 0012 8368     		ldr	r3, [r0, #8]
 1168 0014 2360     		str	r3, [r4]
 335:source\bsw/parser.c ****         return true;
 1169              		.loc 1 335 0
 1170 0016 0120     		movs	r0, #1
 1171              	.LVL145:
 1172 0018 10BD     		pop	{r4, pc}
 1173              	.LVL146:
 1174              	.L88:
 336:source\bsw/parser.c ****     }
 337:source\bsw/parser.c ****     return false;
 1175              		.loc 1 337 0
 1176 001a 0020     		movs	r0, #0
 1177              	.LVL147:
 1178 001c 10BD     		pop	{r4, pc}
 1179              	.LVL148:
 1180              	.L89:
 1181 001e 0020     		movs	r0, #0
 1182              	.LVL149:
 1183 0020 10BD     		pop	{r4, pc}
ARM GAS  C:\Users\abhim\AppData\Local\Temp\cc8lg0jk.s 			page 29


 1184              	.LVL150:
 1185              	.L90:
 1186 0022 0020     		movs	r0, #0
 1187              	.LVL151:
 338:source\bsw/parser.c **** }
 1188              		.loc 1 338 0
 1189 0024 10BD     		pop	{r4, pc}
 1190              		.cfi_endproc
 1191              	.LFE121:
 1192              		.size	json_get_string, .-json_get_string
 1193 0026 00BF     		.section	.text.json_get_bool,"ax",%progbits
 1194              		.align	2
 1195              		.global	json_get_bool
 1196              		.thumb
 1197              		.thumb_func
 1198              		.type	json_get_bool, %function
 1199              	json_get_bool:
 1200              	.LFB122:
 339:source\bsw/parser.c **** 
 340:source\bsw/parser.c **** bool json_get_bool(const json_value* obj, const char* key, bool* out) {
 1201              		.loc 1 340 0
 1202              		.cfi_startproc
 1203              		@ args = 0, pretend = 0, frame = 0
 1204              		@ frame_needed = 0, uses_anonymous_args = 0
 1205              	.LVL152:
 1206 0000 10B5     		push	{r4, lr}
 1207              		.cfi_def_cfa_offset 8
 1208              		.cfi_offset 4, -8
 1209              		.cfi_offset 14, -4
 1210 0002 1446     		mov	r4, r2
 341:source\bsw/parser.c ****     const json_value* field = json_get_field(obj, key);
 1211              		.loc 1 341 0
 1212 0004 FFF7FEFF 		bl	json_get_field
 1213              	.LVL153:
 342:source\bsw/parser.c ****     if (field && field->type == JSON_BOOL && out) {
 1214              		.loc 1 342 0
 1215 0008 38B1     		cbz	r0, .L94
 1216              		.loc 1 342 0 is_stmt 0 discriminator 1
 1217 000a 0278     		ldrb	r2, [r0]	@ zero_extendqisi2
 1218 000c 012A     		cmp	r2, #1
 1219 000e 06D1     		bne	.L95
 1220              		.loc 1 342 0 discriminator 2
 1221 0010 3CB1     		cbz	r4, .L96
 343:source\bsw/parser.c ****         *out = field->data.boolean;
 1222              		.loc 1 343 0 is_stmt 1
 1223 0012 037A     		ldrb	r3, [r0, #8]	@ zero_extendqisi2
 1224 0014 2370     		strb	r3, [r4]
 344:source\bsw/parser.c ****         return true;
 1225              		.loc 1 344 0
 1226 0016 0120     		movs	r0, #1
 1227              	.LVL154:
 1228 0018 10BD     		pop	{r4, pc}
 1229              	.LVL155:
 1230              	.L94:
 345:source\bsw/parser.c ****     }
 346:source\bsw/parser.c ****     return false;
 1231              		.loc 1 346 0
ARM GAS  C:\Users\abhim\AppData\Local\Temp\cc8lg0jk.s 			page 30


 1232 001a 0020     		movs	r0, #0
 1233              	.LVL156:
 1234 001c 10BD     		pop	{r4, pc}
 1235              	.LVL157:
 1236              	.L95:
 1237 001e 0020     		movs	r0, #0
 1238              	.LVL158:
 1239 0020 10BD     		pop	{r4, pc}
 1240              	.LVL159:
 1241              	.L96:
 1242 0022 0020     		movs	r0, #0
 1243              	.LVL160:
 347:source\bsw/parser.c **** }
 1244              		.loc 1 347 0
 1245 0024 10BD     		pop	{r4, pc}
 1246              		.cfi_endproc
 1247              	.LFE122:
 1248              		.size	json_get_bool, .-json_get_bool
 1249 0026 00BF     		.section	.text.json_get_array,"ax",%progbits
 1250              		.align	2
 1251              		.global	json_get_array
 1252              		.thumb
 1253              		.thumb_func
 1254              		.type	json_get_array, %function
 1255              	json_get_array:
 1256              	.LFB123:
 348:source\bsw/parser.c **** 
 349:source\bsw/parser.c **** const json_value* json_get_array(const json_value* obj, const char* key) {
 1257              		.loc 1 349 0
 1258              		.cfi_startproc
 1259              		@ args = 0, pretend = 0, frame = 0
 1260              		@ frame_needed = 0, uses_anonymous_args = 0
 1261              	.LVL161:
 1262 0000 08B5     		push	{r3, lr}
 1263              		.cfi_def_cfa_offset 8
 1264              		.cfi_offset 3, -8
 1265              		.cfi_offset 14, -4
 350:source\bsw/parser.c ****     const json_value* field = json_get_field(obj, key);
 1266              		.loc 1 350 0
 1267 0002 FFF7FEFF 		bl	json_get_field
 1268              	.LVL162:
 351:source\bsw/parser.c ****     return (field && field->type == JSON_ARRAY) ? field : NULL;
 1269              		.loc 1 351 0
 1270 0006 20B1     		cbz	r0, .L100
 1271              		.loc 1 351 0 is_stmt 0 discriminator 1
 1272 0008 0278     		ldrb	r2, [r0]	@ zero_extendqisi2
 1273 000a 042A     		cmp	r2, #4
 1274 000c 03D0     		beq	.L101
 1275              		.loc 1 351 0
 1276 000e 0020     		movs	r0, #0
 1277              	.LVL163:
 1278 0010 08BD     		pop	{r3, pc}
 1279              	.LVL164:
 1280              	.L100:
 1281 0012 0020     		movs	r0, #0
 1282              	.LVL165:
 1283 0014 08BD     		pop	{r3, pc}
ARM GAS  C:\Users\abhim\AppData\Local\Temp\cc8lg0jk.s 			page 31


 1284              	.LVL166:
 1285              	.L101:
 352:source\bsw/parser.c **** }
 1286              		.loc 1 352 0 is_stmt 1
 1287 0016 08BD     		pop	{r3, pc}
 1288              		.cfi_endproc
 1289              	.LFE123:
 1290              		.size	json_get_array, .-json_get_array
 1291              		.section	.text.json_get_object,"ax",%progbits
 1292              		.align	2
 1293              		.global	json_get_object
 1294              		.thumb
 1295              		.thumb_func
 1296              		.type	json_get_object, %function
 1297              	json_get_object:
 1298              	.LFB124:
 353:source\bsw/parser.c **** 
 354:source\bsw/parser.c **** const json_value* json_get_object(const json_value* obj, const char* key) {
 1299              		.loc 1 354 0
 1300              		.cfi_startproc
 1301              		@ args = 0, pretend = 0, frame = 0
 1302              		@ frame_needed = 0, uses_anonymous_args = 0
 1303              	.LVL167:
 1304 0000 08B5     		push	{r3, lr}
 1305              		.cfi_def_cfa_offset 8
 1306              		.cfi_offset 3, -8
 1307              		.cfi_offset 14, -4
 355:source\bsw/parser.c ****     const json_value* field = json_get_field(obj, key);
 1308              		.loc 1 355 0
 1309 0002 FFF7FEFF 		bl	json_get_field
 1310              	.LVL168:
 356:source\bsw/parser.c ****     return (field && field->type == JSON_OBJECT) ? field : NULL;
 1311              		.loc 1 356 0
 1312 0006 20B1     		cbz	r0, .L105
 1313              		.loc 1 356 0 is_stmt 0 discriminator 1
 1314 0008 0278     		ldrb	r2, [r0]	@ zero_extendqisi2
 1315 000a 052A     		cmp	r2, #5
 1316 000c 03D0     		beq	.L106
 1317              		.loc 1 356 0
 1318 000e 0020     		movs	r0, #0
 1319              	.LVL169:
 1320 0010 08BD     		pop	{r3, pc}
 1321              	.LVL170:
 1322              	.L105:
 1323 0012 0020     		movs	r0, #0
 1324              	.LVL171:
 1325 0014 08BD     		pop	{r3, pc}
 1326              	.LVL172:
 1327              	.L106:
 357:source\bsw/parser.c **** }
 1328              		.loc 1 357 0 is_stmt 1
 1329 0016 08BD     		pop	{r3, pc}
 1330              		.cfi_endproc
 1331              	.LFE124:
 1332              		.size	json_get_object, .-json_get_object
 1333              		.section	.rodata.str1.4,"aMS",%progbits,1
 1334              		.align	2
ARM GAS  C:\Users\abhim\AppData\Local\Temp\cc8lg0jk.s 			page 32


 1335              	.LC0:
 1336 0000 4A534D4E 		.ascii	"JSMN_OBJECT\000"
 1336      5F4F424A 
 1336      45435400 
 1337              	.LC1:
 1338 000c 4A534D4E 		.ascii	"JSMN_ARRAY\000"
 1338      5F415252 
 1338      415900
 1339 0017 00       		.space	1
 1340              	.LC2:
 1341 0018 4A534D4E 		.ascii	"JSMN_STRING\000"
 1341      5F535452 
 1341      494E4700 
 1342              	.LC3:
 1343 0024 4A534D4E 		.ascii	"JSMN_PRIMITIVE\000"
 1343      5F505249 
 1343      4D495449 
 1343      564500
 1344 0033 00       		.space	1
 1345              	.LC4:
 1346 0034 554E4B4E 		.ascii	"UNKNOWN\000"
 1346      4F574E00 
 1347              	.LC5:
 1348 003c 496E7661 		.ascii	"Invalid parameters\012\000"
 1348      6C696420 
 1348      70617261 
 1348      6D657465 
 1348      72730A00 
 1349              	.LC6:
 1350 0050 536B6970 		.ascii	"Skipping object/array token\012\000"
 1350      70696E67 
 1350      206F626A 
 1350      6563742F 
 1350      61727261 
 1351 006d 000000   		.space	3
 1352              	.LC7:
 1353 0070 496E7661 		.ascii	"Invalid token boundaries\012\000"
 1353      6C696420 
 1353      746F6B65 
 1353      6E20626F 
 1353      756E6461 
 1354 008a 0000     		.space	2
 1355              	.LC8:
 1356 008c 546F6B65 		.ascii	"Token too long\012\000"
 1356      6E20746F 
 1356      6F206C6F 
 1356      6E670A00 
 1357              	.LC9:
 1358 009c 6765745F 		.ascii	"get_token_content called with start=%d, end=%d\012\000"
 1358      746F6B65 
 1358      6E5F636F 
 1358      6E74656E 
 1358      74206361 
 1359              	.LC10:
 1360 00cc 4A534F4E 		.ascii	"JSON string at position: '%c'\012\000"
 1360      20737472 
 1360      696E6720 
ARM GAS  C:\Users\abhim\AppData\Local\Temp\cc8lg0jk.s 			page 33


 1360      61742070 
 1360      6F736974 
 1361 00eb 00       		.space	1
 1362              	.LC11:
 1363 00ec 41747465 		.ascii	"Attempting to allocate %zu bytes\012\000"
 1363      6D707469 
 1363      6E672074 
 1363      6F20616C 
 1363      6C6F6361 
 1364 010e 0000     		.space	2
 1365              	.LC12:
 1366 0110 6D616C6C 		.ascii	"malloc failed\012\000"
 1366      6F632066 
 1366      61696C65 
 1366      640A00
 1367 011f 00       		.space	1
 1368              	.LC13:
 1369 0120 53756363 		.ascii	"Successfully extracted content: '%s'\012\000"
 1369      65737366 
 1369      756C6C79 
 1369      20657874 
 1369      72616374 
 1370 0146 0000     		.space	2
 1371              	.LC14:
 1372 0148 74736B5F 		.ascii	"tsk_json : Parsed token %d - %s: %s\015\012\000"
 1372      6A736F6E 
 1372      203A2050 
 1372      61727365 
 1372      6420746F 
 1373 016e 0000     		.space	2
 1374              	.LC15:
 1375 0170 74736B5F 		.ascii	"tsk_json : Processing data %s length %u\015\012\000"
 1375      6A736F6E 
 1375      203A2050 
 1375      726F6365 
 1375      7373696E 
 1376              		.text
 1377              	.Letext0:
 1378              		.file 2 "c:\\program files (x86)\\cypress\\psoc creator\\4.4\\psoc creator\\import\\gnu\\arm\\5.4.
 1379              		.file 3 "c:\\program files (x86)\\cypress\\psoc creator\\4.4\\psoc creator\\import\\gnu\\arm\\5.4.
 1380              		.file 4 "c:\\program files (x86)\\cypress\\psoc creator\\4.4\\psoc creator\\import\\gnu\\arm\\5.4.
 1381              		.file 5 "Generated_Source\\PSoC5/ErikaOS_common_ee_types.inc"
 1382              		.file 6 "Generated_Source\\PSoC5/ErikaOS_cortex_mx_ee_cpu.inc"
 1383              		.file 7 "./jsmn.h"
 1384              		.file 8 "source\\bsw\\parser.h"
 1385              		.file 9 "Generated_Source\\PSoC5/ErikaOS_ee_oo_intfunc.inc"
 1386              		.file 10 "Generated_Source\\PSoC5/ErikaOS_cortex_mx_ee_context.inc"
 1387              		.file 11 "Generated_Source\\PSoC5/ErikaOS_common_ee_primitives.inc"
 1388              		.file 12 "Generated_Source\\PSoC5/core_cm3.h"
 1389              		.file 13 "Generated_Source\\PSoC5/UART_LOG.h"
 1390              		.file 14 "c:\\program files (x86)\\cypress\\psoc creator\\4.4\\psoc creator\\import\\gnu\\arm\\5.4
 1391              		.file 15 "c:\\program files (x86)\\cypress\\psoc creator\\4.4\\psoc creator\\import\\gnu\\arm\\5.4
 1392              		.file 16 "c:\\program files (x86)\\cypress\\psoc creator\\4.4\\psoc creator\\import\\gnu\\arm\\5.4